ccopy_reg
_reconstructor
p0
(cdmp.srv._LearnDMPFromDemo
LearnDMPFromDemoResponse
p1
c__builtin__
object
p2
Ntp3
Rp4
(lp5
(lp6
g0
(cdmp.msg._DMPData
DMPData
p7
g2
Ntp8
Rp9
(lp10
F100.0
aF20.0
a(ta(F0.0
F0.0017730496453900709
F0.0035460992907801418
F0.005319148936170213
F0.0070921985815602835
F0.008865248226950354
F0.010638297872340425
F0.012411347517730497
F0.014184397163120567
F0.015957446808510637
F0.017730496453900707
F0.01950354609929078
F0.02127659574468085
F0.02304964539007092
F0.024822695035460994
F0.02659574468085106
F0.028368794326241134
F0.030141843971631204
F0.031914893617021274
F0.03368794326241135
F0.035460992907801414
F0.03723404255319149
F0.03900709219858156
F0.040780141843971635
F0.0425531914893617
F0.04432624113475177
F0.04609929078014184
F0.047872340425531915
F0.04964539007092199
F0.051418439716312055
F0.05319148936170212
F0.054964539007092195
F0.05673758865248227
F0.05851063829787234
F0.06028368794326241
F0.062056737588652475
F0.06382978723404255
F0.06560283687943262
F0.0673758865248227
F0.06914893617021277
F0.07092198581560283
F0.07269503546099292
F0.07446808510638298
F0.07624113475177303
F0.07801418439716312
F0.07978723404255318
F0.08156028368794327
F0.08333333333333333
F0.0851063829787234
F0.08687943262411348
F0.08865248226950354
F0.09042553191489362
F0.09219858156028368
F0.09397163120567376
F0.09574468085106383
F0.09751773049645389
F0.09929078014184398
F0.10106382978723404
F0.10283687943262411
F0.10460992907801418
F0.10638297872340424
F0.10815602836879433
F0.10992907801418439
F0.11170212765957446
F0.11347517730496454
F0.1152482269503546
F0.11702127659574468
F0.11879432624113474
F0.12056737588652482
F0.12234042553191489
F0.12411347517730495
F0.12588652482269502
F0.1276595744680851
F0.12943262411347517
F0.13120567375886524
F0.13297872340425532
F0.1347517730496454
F0.13652482269503546
F0.13829787234042554
F0.14007092198581558
F0.14184397163120566
F0.14361702127659573
F0.14539007092198583
F0.14716312056737588
F0.14893617021276595
F0.15070921985815602
F0.15248226950354607
F0.15425531914893617
F0.15602836879432624
F0.1578014184397163
F0.15957446808510636
F0.16134751773049644
F0.16312056737588654
F0.16489361702127658
F0.16666666666666666
F0.16843971631205673
F0.1702127659574468
F0.17198581560283688
F0.17375886524822695
F0.175531914893617
F0.17730496453900707
F0.17907801418439717
F0.18085106382978725
F0.1826241134751773
F0.18439716312056736
F0.18617021276595744
F0.1879432624113475
F0.18971631205673758
F0.19148936170212766
F0.1932624113475177
F0.19503546099290778
F0.19680851063829788
F0.19858156028368795
F0.200354609929078
F0.20212765957446807
F0.20390070921985815
F0.20567375886524822
F0.2074468085106383
F0.20921985815602837
F0.2109929078014184
F0.21276595744680848
F0.21453900709219859
F0.21631205673758866
F0.2180851063829787
F0.21985815602836878
F0.22163120567375885
F0.22340425531914893
F0.225177304964539
F0.22695035460992907
F0.22872340425531915
F0.2304964539007092
F0.2322695035460993
F0.23404255319148937
F0.2358156028368794
F0.23758865248226949
F0.23936170212765956
F0.24113475177304963
F0.2429078014184397
F0.24468085106382978
F0.24645390070921985
F0.2482269503546099
F0.25
F0.25177304964539005
F0.25354609929078015
F0.2553191489361702
F0.25709219858156024
F0.25886524822695034
F0.26063829787234044
F0.2624113475177305
F0.26418439716312053
F0.26595744680851063
F0.26773049645390073
F0.2695035460992908
F0.2712765957446808
F0.2730496453900709
F0.274822695035461
F0.2765957446808511
F0.2783687943262411
F0.28014184397163117
F0.28191489361702127
F0.2836879432624113
F0.2854609929078014
F0.28723404255319146
F0.28900709219858156
F0.29078014184397166
F0.29255319148936165
F0.29432624113475175
F0.2960992907801418
F0.2978723404255319
F0.299645390070922
F0.30141843971631205
F0.30319148936170215
F0.30496453900709214
F0.30673758865248224
F0.30851063829787234
F0.3102836879432624
F0.3120567375886525
F0.31382978723404253
F0.3156028368794326
F0.3173758865248227
F0.3191489361702127
F0.32092198581560283
F0.3226950354609929
F0.324468085106383
F0.3262411347517731
F0.32801418439716307
F0.32978723404255317
F0.3315602836879432
F0.3333333333333333
F0.3351063829787234
F0.33687943262411346
F0.33865248226950356
F0.3404255319148936
F0.34219858156028365
F0.34397163120567376
F0.3457446808510638
F0.3475177304964539
F0.349290780141844
F0.351063829787234
F0.3528368794326241
F0.35460992907801414
F0.35638297872340424
F0.35815602836879434
F0.3599290780141844
F0.3617021276595745
F0.3634751773049645
F0.3652482269503546
F0.3670212765957447
F0.36879432624113473
F0.37056737588652483
F0.3723404255319149
F0.374113475177305
F0.375886524822695
F0.37765957446808507
F0.37943262411347517
F0.3812056737588652
F0.3829787234042553
F0.3847517730496454
F0.3865248226950354
F0.3882978723404255
F0.39007092198581556
F0.39184397163120566
F0.39361702127659576
F0.3953900709219858
F0.3971631205673759
F0.3989361702127659
F0.400709219858156
F0.4024822695035461
F0.40425531914893614
F0.40602836879432624
F0.4078014184397163
F0.4095744680851064
F0.41134751773049644
F0.4131205673758865
F0.4148936170212766
F0.41666666666666663
F0.41843971631205673
F0.42021276595744683
F0.4219858156028368
F0.4237588652482269
F0.42553191489361697
F0.42730496453900707
F0.42907801418439717
F0.4308510638297872
F0.4326241134751773
F0.4343971631205673
F0.4361702127659574
F0.4379432624113475
F0.43971631205673756
F0.44148936170212766
F0.4432624113475177
F0.4450354609929078
F0.44680851063829785
F0.4485815602836879
F0.450354609929078
F0.45212765957446804
F0.45390070921985815
F0.45567375886524825
F0.4574468085106383
F0.45921985815602834
F0.4609929078014184
F0.4627659574468085
F0.4645390070921986
F0.46631205673758863
F0.46808510638297873
F0.4698581560283687
F0.4716312056737588
F0.4734042553191489
F0.47517730496453897
F0.4769503546099291
F0.4787234042553191
F0.4804964539007092
F0.48226950354609927
F0.4840425531914893
F0.4858156028368794
F0.48758865248226946
F0.48936170212765956
F0.49113475177304966
F0.4929078014184397
F0.49468085106382975
F0.4964539007092198
F0.4982269503546099
F0.5
F0.50177304964539
F0.5035460992907801
F0.5053191489361701
F0.5070921985815603
F0.5088652482269503
F0.5106382978723404
F0.5124113475177304
F0.5141843971631205
F0.5159574468085106
F0.5177304964539007
F0.5195035460992907
F0.5212765957446809
F0.5230496453900708
F0.524822695035461
F0.526595744680851
F0.5283687943262411
F0.5301418439716312
F0.5319148936170213
F0.5336879432624113
F0.5354609929078015
F0.5372340425531914
F0.5390070921985816
F0.5407801418439716
F0.5425531914893617
F0.5443262411347518
F0.5460992907801419
F0.5478723404255319
F0.549645390070922
F0.551418439716312
F0.5531914893617021
F0.5549645390070922
F0.5567375886524822
F0.5585106382978723
F0.5602836879432623
F0.5620567375886525
F0.5638297872340425
F0.5656028368794326
F0.5673758865248226
F0.5691489361702128
F0.5709219858156028
F0.5726950354609929
F0.5744680851063829
F0.576241134751773
F0.5780141843971631
F0.5797872340425532
F0.5815602836879433
F0.5833333333333333
F0.5851063829787233
F0.5868794326241135
F0.5886524822695035
F0.5904255319148937
F0.5921985815602836
F0.5939716312056736
F0.5957446808510638
F0.5975177304964538
F0.599290780141844
F0.6010638297872339
F0.6028368794326241
F0.6046099290780141
F0.6063829787234043
F0.6081560283687943
F0.6099290780141843
F0.6117021276595744
F0.6134751773049645
F0.6152482269503546
F0.6170212765957447
F0.6187943262411346
F0.6205673758865248
F0.6223404255319148
F0.624113475177305
F0.625886524822695
F0.6276595744680851
F0.6294326241134751
F0.6312056737588652
F0.6329787234042553
F0.6347517730496454
F0.6365248226950354
F0.6382978723404255
F0.6400709219858156
F0.6418439716312057
F0.6436170212765957
F0.6453900709219857
F0.6471631205673758
F0.648936170212766
F0.650709219858156
F0.6524822695035462
F0.6542553191489361
F0.6560283687943261
F0.6578014184397163
F0.6595744680851063
F0.6613475177304965
F0.6631205673758864
F0.6648936170212766
F0.6666666666666666
F0.6684397163120567
F0.6702127659574468
F0.6719858156028368
F0.6737588652482269
F0.675531914893617
F0.6773049645390071
F0.6790780141843972
F0.6808510638297872
F0.6826241134751773
F0.6843971631205673
F0.6861702127659575
F0.6879432624113475
F0.6897163120567377
F0.6914893617021276
F0.6932624113475176
F0.6950354609929078
F0.6968085106382979
F0.698581560283688
F0.7003546099290779
F0.702127659574468
F0.7039007092198581
F0.7056737588652482
F0.7074468085106383
F0.7092198581560283
F0.7109929078014184
F0.7127659574468085
F0.7145390070921985
F0.7163120567375887
F0.7180851063829786
F0.7198581560283688
F0.7216312056737588
F0.723404255319149
F0.725177304964539
F0.726950354609929
F0.7287234042553191
F0.7304964539007092
F0.7322695035460993
F0.7340425531914894
F0.7358156028368794
F0.7375886524822695
F0.7393617021276595
F0.7411347517730497
F0.7429078014184397
F0.7446808510638298
F0.7464539007092198
F0.74822695035461
F0.75
F0.75177304964539
F0.7535460992907801
F0.7553191489361701
F0.7570921985815603
F0.7588652482269503
F0.7606382978723405
F0.7624113475177304
F0.7641843971631205
F0.7659574468085106
F0.7677304964539007
F0.7695035460992908
F0.7712765957446808
F0.7730496453900708
F0.774822695035461
F0.776595744680851
F0.7783687943262412
F0.7801418439716311
F0.7819148936170213
F0.7836879432624113
F0.7854609929078015
F0.7872340425531915
F0.7890070921985815
F0.7907801418439716
F0.7925531914893617
F0.7943262411347518
F0.7960992907801419
F0.7978723404255318
F0.799645390070922
F0.801418439716312
F0.8031914893617021
F0.8049645390070922
F0.8067375886524822
F0.8085106382978723
F0.8102836879432623
F0.8120567375886525
F0.8138297872340425
F0.8156028368794326
F0.8173758865248226
F0.8191489361702128
F0.8209219858156028
F0.8226950354609929
F0.8244680851063829
F0.826241134751773
F0.8280141843971631
F0.8297872340425532
F0.8315602836879433
F0.8333333333333333
F0.8351063829787233
F0.8368794326241135
F0.8386524822695035
F0.8404255319148937
F0.8421985815602836
F0.8439716312056736
F0.8457446808510638
F0.8475177304964538
F0.849290780141844
F0.8510638297872339
F0.8528368794326241
F0.8546099290780141
F0.8563829787234043
F0.8581560283687943
F0.8599290780141843
F0.8617021276595744
F0.8634751773049645
F0.8652482269503546
F0.8670212765957447
F0.8687943262411346
F0.8705673758865248
F0.8723404255319148
F0.874113475177305
F0.875886524822695
F0.8776595744680851
F0.8794326241134751
F0.8812056737588652
F0.8829787234042553
F0.8847517730496454
F0.8865248226950354
F0.8882978723404255
F0.8900709219858156
F0.8918439716312057
F0.8936170212765957
F0.8953900709219857
F0.8971631205673758
F0.898936170212766
F0.900709219858156
F0.9024822695035462
F0.9042553191489361
F0.9060283687943261
F0.9078014184397163
F0.9095744680851063
F0.9113475177304965
F0.9131205673758864
F0.9148936170212766
F0.9166666666666666
F0.9184397163120567
F0.9202127659574468
F0.9219858156028368
F0.9237588652482269
F0.925531914893617
F0.9273049645390071
F0.9290780141843972
F0.9308510638297871
F0.9326241134751773
F0.9343971631205673
F0.9361702127659575
F0.9379432624113475
F0.9397163120567374
F0.9414893617021276
F0.9432624113475176
F0.9450354609929078
F0.9468085106382979
F0.9485815602836879
F0.9503546099290779
F0.952127659574468
F0.9539007092198581
F0.9556737588652482
F0.9574468085106382
F0.9592198581560283
F0.9609929078014184
F0.9627659574468085
F0.9645390070921985
F0.9663120567375886
F0.9680851063829786
F0.9698581560283688
F0.9716312056737588
F0.973404255319149
F0.9751773049645389
F0.976950354609929
F0.9787234042553191
F0.9804964539007092
F0.9822695035460993
F0.9840425531914893
F0.9858156028368794
F0.9875886524822695
F0.9893617021276595
F0.9911347517730497
F0.9929078014184396
F0.9946808510638298
F0.9964539007092198
F0.99822695035461
F1.0
tp11
a(F0.0
F-3.759566491960797
F1.1117662951092477
F7.361427219028179
F-5.904978844857527
F1.0121311643770368
F0.007224383114708737
F-0.034468209280560096
F-2.643081102572096
F1.1007026611284303
F5.179426020805606
F-4.98949157802771
F-0.3001877472041388
F6.5563197304852885
F-10.379619217301142
F6.046654567988854
F0.29038238524333576
F-1.4159715164738162
F-5.7142768221938365
F9.131316461288739
F-7.7369635971297255
F6.256222797403277
F-3.836296076539033
F2.40290155881299
F-1.3183149179337161
F4.126595796029417
F-5.53066883198548
F0.87457332611601
F-3.003905584647179
F1.037531647745798
F1.3582746340229372
F-0.04402905940170999
F-3.177645675880096
F7.0258798577393655
F-2.4164958174639946
F-1.9391282284942966
F-3.41159136337959
F0.9159735484768424
F6.181441094849562
F-8.909338805857374
F8.192474473746135
F-7.10764755502679
F5.281577540653283
F-2.6961622470514603
F-0.5864309278391153
F-3.5375078559841735
F0.9074772261915167
F1.510596385467908
F1.5718198728429638
F1.6537934174257594
F-5.037180475949135
F4.125339826099096
F-9.780693406827085
F6.720766038821048
F-4.353673065440481
F5.862721190123047
F-2.829446120272187
F-2.573536597537826
F4.706461690293394
F0.4787882493551982
F-9.202085602314277
F7.201681636719612
F-0.768969374457986
F-7.910087350422495
F3.8374048488303356
F4.154154002864299
F-5.344179659836671
F0.5549129532531274
F-3.9393621114100803
F10.279096173029822
F-9.856976736261469
F7.199397158297554
F-6.399255611029866
F-5.742217413774158
F10.405096146749445
F-4.167119807675983
F-9.388697482468027
F13.6346673621947
F-11.37581734796998
F8.87286682920998
F-8.281864574268152
F-0.5052337540731987
F5.89345327025964
F-7.478480284963423
F-2.3488163300228804
F5.568484130535609
F-3.508384796361542
F9.139179109614892
F-15.287477429527339
F8.457774199034239
F-2.033996065461166
F-5.917296195180199
F4.771222244382989
F0.8785854330197999
F-0.570688074889301
F-7.3074165562106455
F6.668682618176862
F1.5111063799835585
F-9.65204124786781
F-0.6719495535868664
F2.0010309864914357
F2.119880891887261
F6.879111313119944
F-12.75079850334906
F7.3801999105829434
F-2.219592503945302
F-6.679389895265597
F5.12563628564372
F-10.923835938376984
F10.444956070575666
F-4.140334161005366
F2.207031938441286
F-4.33702429303867
F0.3332461930278757
F2.441379390448867
F-5.077061451364525
F5.309568188278613
F-6.022947698267298
F-3.0930820031866895
F11.983868126595352
F-9.693757963027824
F3.134462257540675
F-0.8980459446977104
F-4.1438912775180246
F0.9491265830563028
F2.769966635485083
F-5.185090362374272
F0.17144665979358617
F8.186112380043562
F-0.6236763507690254
F-9.602798966817849
F4.782348893258563
F2.044249070286838
F-6.150285465741696
F0.16716223921989215
F11.350634969099684
F-10.164041187782525
F-5.912092336329606
F7.781676542286357
F2.68857298104926
F-0.5965985876015927
F-6.33141674508482
F3.1844363678307794
F-4.39654899300907
F9.108118114627711
F-1.8483242759142084
F-5.693990749297614
F-1.7854102970784766
F2.448882959803276
F0.722052074623407
F2.6331276952616225
F-2.4469653322945772
F-1.4716946212930284
F2.6284753359361948
F-5.468949819676
F3.3070746977014234
F-1.2111317558462484
F1.4420212366358551
F1.236813395655911
F-0.3926555128069778
F6.258207623001171
F-0.8632271183723348
F-11.246855577494685
F5.1422164478891395
F0.6630406998861299
F-1.7652449167696722
F3.2406824699275063
F1.0030666688758385
F10.240541360336314
F-15.5513846143712
F0.2578703748647709
F8.082377593517684
F-5.064934430660833
F-0.10346367206921474
F4.8198557306938365
F5.615864623155302
F-8.931935572267259
F-1.83768387099585
F5.232541731590672
F-1.6527597435455075
F9.17754119930946
F9.428134215773904
F-16.073256235905923
F-5.37947815526501
F5.204819333787228
F2.1727084982533484
F4.128567645248223
F2.306988592757595
F-7.4721821662964905
F3.8878006493515342
F-7.206621325438812
F9.29640797836774
F-2.6788712755602755
F9.688307507578648
F-3.151728211633773
F-1.6253952945964525
F-9.320745015020325
F1.3588833543239314
F12.694730548198702
F-2.7652844423527476
F-0.4612750041057132
F-4.975686534132191
F12.47497765916716
F-10.751324920184143
F-3.748438987583248
F14.08441077146597
F-11.299766052476238
F11.262823507958853
F0.9601684905156868
F-11.160841336039075
F23.619631169481103
F-9.006131891098114
F-10.960459380018353
F-1.1552749214816347
F15.249430316327576
F3.751384355021062
F-18.16821598834508
F4.664976958926865
F9.771689652779871
F5.912194568886195
F-9.75522821835387
F0.5342381265867725
F7.366348075254377
F0.9274234263915105
F-12.987765919806346
F-8.668717604961142
F19.13681334266817
F-1.041267024757064
F-3.6094319857901134
F19.019664309263824
F-3.203771290798397
F-13.981438128205134
F12.035742277346344
F-7.6948639988221075
F1.3182358541635013
F6.971276103119311
F-12.643144116993767
F22.98369837994076
F-14.889824079908106
F-9.97356361125674
F31.396046445244718
F-16.94920008237635
F13.174417347805107
F19.194307265694576
F-26.61475338651983
F-20.282427432967452
F16.870649623619475
F23.52012358332985
F-9.153573991389536
F-1.018021859754938
F20.753335327238624
F-21.137535567684118
F1.6805349033311554
F13.266318125699229
F-7.331581991014695
F7.336918369516405
F-21.269824684000586
F-0.7187758397147485
F43.64733565446776
F-0.7219118137052724
F-28.92601386032724
F2.8853152697349773
F0.5365883772615005
F14.08362313296102
F22.428428799942886
F-14.127032340799115
F-19.653516285857798
F7.619898288683789
F1.402894374781162
F13.893426678580358
F6.535951443213188
F3.8687450823190708
F-10.253263503223105
F-32.739942380320144
F30.746905444073985
F31.5461736445539
F-26.768274487680703
F1.927163122318796
F2.260861958226576
F-4.227490685536192
F20.69269280026745
F-28.198317738967763
F19.500071185061092
F35.20918510495493
F-41.53830929496035
F1.0899081974766809
F9.582848698530114
F-11.990384189872977
F2.6786824354855705
F7.477603434812496
F-3.0437866227046966
F0.4507433357927008
F10.36999041748147
F-5.9625253396045945
F-3.9241484965731943
F7.130199501507721
F11.176234938248331
F-19.643015903857698
F20.888713376391323
F0.20442853034619107
F-23.501624311320118
F17.235405714424978
F8.531154497695319
F4.0415408767444445
F-5.825582977892732
F-11.667143237915429
F5.776554120822671
F34.12317115755313
F-23.078484389642934
F0.8717867327807269
F12.376988505764603
F-36.533348932359765
F40.764292574631206
F-5.801950065203859
F-36.48643585954344
F24.980097389678104
F20.837450764775138
F-5.26092929982394
F-14.248665638109227
F-22.571234384687042
F32.523765875648515
F35.582957304688456
F-47.47800677459986
F-27.509182351816467
F18.09360582965388
F63.22035278423234
F-20.772440844187855
F-10.063220422906209
F-29.767537815264962
F16.211999011904624
F8.537870605248978
F-12.278646838231332
F20.236745642294295
F5.57774373220761
F13.528916999667024
F-0.12476042430718452
F-40.71228297735422
F24.638480336016862
F-5.613136972237576
F21.490656159475552
F11.341268804240302
F-66.88329454743973
F19.89268847672666
F52.066903496780846
F2.8270117625309634
F-13.16526338929643
F-23.69784510302107
F-6.6948648667127655
F21.020288868472807
F22.848080238604936
F-35.168792048404576
F12.447544320798743
F-26.02796672066538
F34.32800010696564
F25.80974676686374
F-46.47057453317661
F16.05983760558518
F-15.111436337556306
F5.881636649538544
F52.52794159530686
F-3.1799371208659535
F-7.7014331961222275
F-60.90981366901467
F29.389314304053705
F52.81852153422756
F-92.48414531817026
F59.22076198404677
F51.51508793290827
F-31.549630825882094
F-46.82966391183649
F8.664295401771163
F-6.514067203461333
F53.152483507616616
F-76.58669452845024
F-8.84812628599033
F26.713891552828247
F36.814999308979026
F2.8150472938840694
F-36.29585176281541
F40.15236370923046
F-74.32723466083576
F27.4134832939098
F39.46467921550565
F-18.62042420987439
F12.957621336093602
F-49.0436883082852
F19.89791045878019
F0.46371183683597755
F28.721574279046266
F25.98489354576041
F-81.55046795016911
F18.14872850979403
F33.57808697664425
F-11.092702297524454
F-5.213804626910371
F-38.05242350381603
F66.86668477367603
F-27.106418534790787
F-49.15418943673826
F64.15943963695524
F19.913012664967503
F-69.75796209124515
F8.95224931747188
F33.423709385462935
F-3.228989904593234
F-35.88390863668469
F61.432660849637244
F-80.06413685437055
F59.234415431556315
F16.86588649351932
F-14.968941782437962
F17.357273408501296
F-16.039757882956422
F19.073215773816987
F-36.259838890426046
F-27.164333208009
F8.915932466663769
F37.43074705360197
F9.306662013370936
F-56.16850099710449
F18.985552365653067
F28.54592639501488
F-49.61890828013165
F111.11205989311159
F-58.810667428684624
F-29.349718356514362
F132.67660785791213
F-160.32814694808312
F-12.653098292208517
F71.65472796637415
F12.901560583716714
F-43.69800921005621
F46.268503562624566
F-57.06967099353337
F43.65731984871686
F53.437693744651185
F23.988926216977937
F-181.38236784496794
F22.880741141480037
F178.66900686916097
F-72.01851266557057
F78.93547721648746
F-104.76684658951658
F-9.6638835824648
F-26.833411834968626
F36.6765061571676
F41.59213920010013
F113.41850797819366
F-148.36443578310306
F20.5798467916889
F90.5719045928655
F-6.272312786854341
F-167.35544007377132
F120.80698652476116
F-18.35151301382605
F-32.34342679505893
F173.3951533190358
F-164.9200861585706
F-9.62172117044316
F16.94772250002153
F214.81698527346836
F-223.93271029762613
F-13.804674197657627
F134.70154112616572
F5.629174904623906
F2.8861742396199097
F-32.52183123774778
F-146.78057122563183
F168.51714527554097
F-62.440990676831795
F119.01692897914569
F-111.01826568574454
F99.62705716067443
F-244.4589093150626
F55.80314302756082
F275.84201336225095
F-165.6145923236301
F-62.835267704986386
F172.1675724232984
F-197.6478227571712
F53.36381781409886
F-18.41813865779151
F-62.05695235385345
F229.61713527988115
F-246.42572867258588
F157.51777302771842
F-63.315738089788766
F-66.6229945739601
F-59.48976501049408
F14.292204551907286
F134.71061426600525
F94.13302328489323
F-186.4521942063453
F-62.87386206852481
F13.92732138370575
F103.61402235065954
F-90.21055377811278
F199.11885372339987
F-337.99779101572636
F299.52662913979015
F-119.63775473931275
F37.50274220454848
F-164.5787526556917
F247.30132034219412
F-125.87180298527478
F76.03965352492042
F46.13542740254449
F-201.4038846818039
F83.61578563444948
F118.47361813056824
F-208.00369079150187
F60.91617345896661
F-44.32713613012082
F272.5125665420015
F-223.15729732241306
F13.446017332892263
F139.37253296266655
F-154.4905058868995
F-9.433478425490682
F-45.77404307758629
F377.5001028609969
F-258.0045327069156
F-223.9094540821886
F240.4048744304186
F8.212765883662978
F77.32783530267645
F-87.77135242419949
F-80.08115070552202
F91.25821495509253
F83.49216440695949
F-85.85954506120395
F-5.670848254065295
F-78.26158462956323
F181.19756574901538
F-14.0694595209816
F-264.8512129717796
F171.7839742620442
F-169.2132034400734
F358.8225776224941
F-367.7594889772106
F278.9690278949112
F-189.78466485504097
F102.83065155119846
F96.4109018937978
F-88.5984619993672
F190.88009760712325
F-399.67669836410295
F298.7752363162679
F-300.45768397761407
F421.4283970728709
F-108.25403223850395
F-219.66859807601898
F-100.52607339727379
F432.2666974171025
F-329.60545259844366
F108.6057156965203
F-111.96518228271346
F112.80794000337113
F0.4991428111889355
F2.655837796965893
F116.58244900069177
F-237.88279697123255
F-0.23251301393685503
F243.91956487456983
F128.70879362295653
tp12
abag0
(g7
g2
Ntp13
Rp14
(lp15
F100.0
aF20.0
a(ta(F0.0
F0.0017730496453900709
F0.0035460992907801418
F0.005319148936170213
F0.0070921985815602835
F0.008865248226950354
F0.010638297872340425
F0.012411347517730497
F0.014184397163120567
F0.015957446808510637
F0.017730496453900707
F0.01950354609929078
F0.02127659574468085
F0.02304964539007092
F0.024822695035460994
F0.02659574468085106
F0.028368794326241134
F0.030141843971631204
F0.031914893617021274
F0.03368794326241135
F0.035460992907801414
F0.03723404255319149
F0.03900709219858156
F0.040780141843971635
F0.0425531914893617
F0.04432624113475177
F0.04609929078014184
F0.047872340425531915
F0.04964539007092199
F0.051418439716312055
F0.05319148936170212
F0.054964539007092195
F0.05673758865248227
F0.05851063829787234
F0.06028368794326241
F0.062056737588652475
F0.06382978723404255
F0.06560283687943262
F0.0673758865248227
F0.06914893617021277
F0.07092198581560283
F0.07269503546099292
F0.07446808510638298
F0.07624113475177303
F0.07801418439716312
F0.07978723404255318
F0.08156028368794327
F0.08333333333333333
F0.0851063829787234
F0.08687943262411348
F0.08865248226950354
F0.09042553191489362
F0.09219858156028368
F0.09397163120567376
F0.09574468085106383
F0.09751773049645389
F0.09929078014184398
F0.10106382978723404
F0.10283687943262411
F0.10460992907801418
F0.10638297872340424
F0.10815602836879433
F0.10992907801418439
F0.11170212765957446
F0.11347517730496454
F0.1152482269503546
F0.11702127659574468
F0.11879432624113474
F0.12056737588652482
F0.12234042553191489
F0.12411347517730495
F0.12588652482269502
F0.1276595744680851
F0.12943262411347517
F0.13120567375886524
F0.13297872340425532
F0.1347517730496454
F0.13652482269503546
F0.13829787234042554
F0.14007092198581558
F0.14184397163120566
F0.14361702127659573
F0.14539007092198583
F0.14716312056737588
F0.14893617021276595
F0.15070921985815602
F0.15248226950354607
F0.15425531914893617
F0.15602836879432624
F0.1578014184397163
F0.15957446808510636
F0.16134751773049644
F0.16312056737588654
F0.16489361702127658
F0.16666666666666666
F0.16843971631205673
F0.1702127659574468
F0.17198581560283688
F0.17375886524822695
F0.175531914893617
F0.17730496453900707
F0.17907801418439717
F0.18085106382978725
F0.1826241134751773
F0.18439716312056736
F0.18617021276595744
F0.1879432624113475
F0.18971631205673758
F0.19148936170212766
F0.1932624113475177
F0.19503546099290778
F0.19680851063829788
F0.19858156028368795
F0.200354609929078
F0.20212765957446807
F0.20390070921985815
F0.20567375886524822
F0.2074468085106383
F0.20921985815602837
F0.2109929078014184
F0.21276595744680848
F0.21453900709219859
F0.21631205673758866
F0.2180851063829787
F0.21985815602836878
F0.22163120567375885
F0.22340425531914893
F0.225177304964539
F0.22695035460992907
F0.22872340425531915
F0.2304964539007092
F0.2322695035460993
F0.23404255319148937
F0.2358156028368794
F0.23758865248226949
F0.23936170212765956
F0.24113475177304963
F0.2429078014184397
F0.24468085106382978
F0.24645390070921985
F0.2482269503546099
F0.25
F0.25177304964539005
F0.25354609929078015
F0.2553191489361702
F0.25709219858156024
F0.25886524822695034
F0.26063829787234044
F0.2624113475177305
F0.26418439716312053
F0.26595744680851063
F0.26773049645390073
F0.2695035460992908
F0.2712765957446808
F0.2730496453900709
F0.274822695035461
F0.2765957446808511
F0.2783687943262411
F0.28014184397163117
F0.28191489361702127
F0.2836879432624113
F0.2854609929078014
F0.28723404255319146
F0.28900709219858156
F0.29078014184397166
F0.29255319148936165
F0.29432624113475175
F0.2960992907801418
F0.2978723404255319
F0.299645390070922
F0.30141843971631205
F0.30319148936170215
F0.30496453900709214
F0.30673758865248224
F0.30851063829787234
F0.3102836879432624
F0.3120567375886525
F0.31382978723404253
F0.3156028368794326
F0.3173758865248227
F0.3191489361702127
F0.32092198581560283
F0.3226950354609929
F0.324468085106383
F0.3262411347517731
F0.32801418439716307
F0.32978723404255317
F0.3315602836879432
F0.3333333333333333
F0.3351063829787234
F0.33687943262411346
F0.33865248226950356
F0.3404255319148936
F0.34219858156028365
F0.34397163120567376
F0.3457446808510638
F0.3475177304964539
F0.349290780141844
F0.351063829787234
F0.3528368794326241
F0.35460992907801414
F0.35638297872340424
F0.35815602836879434
F0.3599290780141844
F0.3617021276595745
F0.3634751773049645
F0.3652482269503546
F0.3670212765957447
F0.36879432624113473
F0.37056737588652483
F0.3723404255319149
F0.374113475177305
F0.375886524822695
F0.37765957446808507
F0.37943262411347517
F0.3812056737588652
F0.3829787234042553
F0.3847517730496454
F0.3865248226950354
F0.3882978723404255
F0.39007092198581556
F0.39184397163120566
F0.39361702127659576
F0.3953900709219858
F0.3971631205673759
F0.3989361702127659
F0.400709219858156
F0.4024822695035461
F0.40425531914893614
F0.40602836879432624
F0.4078014184397163
F0.4095744680851064
F0.41134751773049644
F0.4131205673758865
F0.4148936170212766
F0.41666666666666663
F0.41843971631205673
F0.42021276595744683
F0.4219858156028368
F0.4237588652482269
F0.42553191489361697
F0.42730496453900707
F0.42907801418439717
F0.4308510638297872
F0.4326241134751773
F0.4343971631205673
F0.4361702127659574
F0.4379432624113475
F0.43971631205673756
F0.44148936170212766
F0.4432624113475177
F0.4450354609929078
F0.44680851063829785
F0.4485815602836879
F0.450354609929078
F0.45212765957446804
F0.45390070921985815
F0.45567375886524825
F0.4574468085106383
F0.45921985815602834
F0.4609929078014184
F0.4627659574468085
F0.4645390070921986
F0.46631205673758863
F0.46808510638297873
F0.4698581560283687
F0.4716312056737588
F0.4734042553191489
F0.47517730496453897
F0.4769503546099291
F0.4787234042553191
F0.4804964539007092
F0.48226950354609927
F0.4840425531914893
F0.4858156028368794
F0.48758865248226946
F0.48936170212765956
F0.49113475177304966
F0.4929078014184397
F0.49468085106382975
F0.4964539007092198
F0.4982269503546099
F0.5
F0.50177304964539
F0.5035460992907801
F0.5053191489361701
F0.5070921985815603
F0.5088652482269503
F0.5106382978723404
F0.5124113475177304
F0.5141843971631205
F0.5159574468085106
F0.5177304964539007
F0.5195035460992907
F0.5212765957446809
F0.5230496453900708
F0.524822695035461
F0.526595744680851
F0.5283687943262411
F0.5301418439716312
F0.5319148936170213
F0.5336879432624113
F0.5354609929078015
F0.5372340425531914
F0.5390070921985816
F0.5407801418439716
F0.5425531914893617
F0.5443262411347518
F0.5460992907801419
F0.5478723404255319
F0.549645390070922
F0.551418439716312
F0.5531914893617021
F0.5549645390070922
F0.5567375886524822
F0.5585106382978723
F0.5602836879432623
F0.5620567375886525
F0.5638297872340425
F0.5656028368794326
F0.5673758865248226
F0.5691489361702128
F0.5709219858156028
F0.5726950354609929
F0.5744680851063829
F0.576241134751773
F0.5780141843971631
F0.5797872340425532
F0.5815602836879433
F0.5833333333333333
F0.5851063829787233
F0.5868794326241135
F0.5886524822695035
F0.5904255319148937
F0.5921985815602836
F0.5939716312056736
F0.5957446808510638
F0.5975177304964538
F0.599290780141844
F0.6010638297872339
F0.6028368794326241
F0.6046099290780141
F0.6063829787234043
F0.6081560283687943
F0.6099290780141843
F0.6117021276595744
F0.6134751773049645
F0.6152482269503546
F0.6170212765957447
F0.6187943262411346
F0.6205673758865248
F0.6223404255319148
F0.624113475177305
F0.625886524822695
F0.6276595744680851
F0.6294326241134751
F0.6312056737588652
F0.6329787234042553
F0.6347517730496454
F0.6365248226950354
F0.6382978723404255
F0.6400709219858156
F0.6418439716312057
F0.6436170212765957
F0.6453900709219857
F0.6471631205673758
F0.648936170212766
F0.650709219858156
F0.6524822695035462
F0.6542553191489361
F0.6560283687943261
F0.6578014184397163
F0.6595744680851063
F0.6613475177304965
F0.6631205673758864
F0.6648936170212766
F0.6666666666666666
F0.6684397163120567
F0.6702127659574468
F0.6719858156028368
F0.6737588652482269
F0.675531914893617
F0.6773049645390071
F0.6790780141843972
F0.6808510638297872
F0.6826241134751773
F0.6843971631205673
F0.6861702127659575
F0.6879432624113475
F0.6897163120567377
F0.6914893617021276
F0.6932624113475176
F0.6950354609929078
F0.6968085106382979
F0.698581560283688
F0.7003546099290779
F0.702127659574468
F0.7039007092198581
F0.7056737588652482
F0.7074468085106383
F0.7092198581560283
F0.7109929078014184
F0.7127659574468085
F0.7145390070921985
F0.7163120567375887
F0.7180851063829786
F0.7198581560283688
F0.7216312056737588
F0.723404255319149
F0.725177304964539
F0.726950354609929
F0.7287234042553191
F0.7304964539007092
F0.7322695035460993
F0.7340425531914894
F0.7358156028368794
F0.7375886524822695
F0.7393617021276595
F0.7411347517730497
F0.7429078014184397
F0.7446808510638298
F0.7464539007092198
F0.74822695035461
F0.75
F0.75177304964539
F0.7535460992907801
F0.7553191489361701
F0.7570921985815603
F0.7588652482269503
F0.7606382978723405
F0.7624113475177304
F0.7641843971631205
F0.7659574468085106
F0.7677304964539007
F0.7695035460992908
F0.7712765957446808
F0.7730496453900708
F0.774822695035461
F0.776595744680851
F0.7783687943262412
F0.7801418439716311
F0.7819148936170213
F0.7836879432624113
F0.7854609929078015
F0.7872340425531915
F0.7890070921985815
F0.7907801418439716
F0.7925531914893617
F0.7943262411347518
F0.7960992907801419
F0.7978723404255318
F0.799645390070922
F0.801418439716312
F0.8031914893617021
F0.8049645390070922
F0.8067375886524822
F0.8085106382978723
F0.8102836879432623
F0.8120567375886525
F0.8138297872340425
F0.8156028368794326
F0.8173758865248226
F0.8191489361702128
F0.8209219858156028
F0.8226950354609929
F0.8244680851063829
F0.826241134751773
F0.8280141843971631
F0.8297872340425532
F0.8315602836879433
F0.8333333333333333
F0.8351063829787233
F0.8368794326241135
F0.8386524822695035
F0.8404255319148937
F0.8421985815602836
F0.8439716312056736
F0.8457446808510638
F0.8475177304964538
F0.849290780141844
F0.8510638297872339
F0.8528368794326241
F0.8546099290780141
F0.8563829787234043
F0.8581560283687943
F0.8599290780141843
F0.8617021276595744
F0.8634751773049645
F0.8652482269503546
F0.8670212765957447
F0.8687943262411346
F0.8705673758865248
F0.8723404255319148
F0.874113475177305
F0.875886524822695
F0.8776595744680851
F0.8794326241134751
F0.8812056737588652
F0.8829787234042553
F0.8847517730496454
F0.8865248226950354
F0.8882978723404255
F0.8900709219858156
F0.8918439716312057
F0.8936170212765957
F0.8953900709219857
F0.8971631205673758
F0.898936170212766
F0.900709219858156
F0.9024822695035462
F0.9042553191489361
F0.9060283687943261
F0.9078014184397163
F0.9095744680851063
F0.9113475177304965
F0.9131205673758864
F0.9148936170212766
F0.9166666666666666
F0.9184397163120567
F0.9202127659574468
F0.9219858156028368
F0.9237588652482269
F0.925531914893617
F0.9273049645390071
F0.9290780141843972
F0.9308510638297871
F0.9326241134751773
F0.9343971631205673
F0.9361702127659575
F0.9379432624113475
F0.9397163120567374
F0.9414893617021276
F0.9432624113475176
F0.9450354609929078
F0.9468085106382979
F0.9485815602836879
F0.9503546099290779
F0.952127659574468
F0.9539007092198581
F0.9556737588652482
F0.9574468085106382
F0.9592198581560283
F0.9609929078014184
F0.9627659574468085
F0.9645390070921985
F0.9663120567375886
F0.9680851063829786
F0.9698581560283688
F0.9716312056737588
F0.973404255319149
F0.9751773049645389
F0.976950354609929
F0.9787234042553191
F0.9804964539007092
F0.9822695035460993
F0.9840425531914893
F0.9858156028368794
F0.9875886524822695
F0.9893617021276595
F0.9911347517730497
F0.9929078014184396
F0.9946808510638298
F0.9964539007092198
F0.99822695035461
F1.0
tp16
a(F0.0
F0.0010690048672132892
F0.0021467741007015857
F-1.2509332328341423
F1.1836958828135686
F1.3283339723427243
F-3.773171376053927
F3.668839737584505
F-2.4120096205349104
F1.1818638885900161
F0.05638051167300624
F1.3396084614215809
F-3.8533159074106647
F3.7003702359402797
F0.2805370191536937
F0.0563401680670375
F-4.022515174619742
F1.0848287581020049
F2.8140332573443225
F-2.5571266086005515
F3.9936701634106115
F-2.437862451525109
F-2.9675331914383216
F6.855538206147173
F-6.526942848476257
F6.702003884869081
F-5.1728984260206055
F1.048816989764749
F0.13982474835686148
F-1.4406802447263372
F2.842097212539135
F-1.1776734213196305
F1.4257877220615995
F-2.8020896850608525
F-1.8133630011631
F4.4274173807725425
F-2.59649311650088
F4.38929336701285
F-0.9968488395285595
F-3.1733128416472245
F1.263448442276096
F-1.3837248155866897
F-0.17079496108850517
F3.2310040416851065
F0.45648987818374154
F-1.5224384078386766
F1.5374146797605286
F-3.022265363294574
F1.3045597762933228
F0.2524970421095773
F0.06574153471951845
F-1.622558660991299
F3.1955663561270993
F-2.861186750069262
F4.757592144465498
F-4.367716496924039
F-2.4140803894419185
F-0.314943775673066
F7.097334713302607
F-0.6416382487597777
F-3.681658168908351
F-0.49734404764930007
F1.836613331478132
F0.3479364022065166
F-1.7607616245131965
F1.6031209098024044
F-1.5064870905552836
F1.6218893461306494
F0.3797055072356005
F2.0024326422007257
F-1.4436825373614
F-4.058048141732798
F3.182573676263719
F0.7507861477445811
F4.035274205714433
F-8.942658225486397
F4.111420726722355
F1.1604618334312957
F8.166499417409085
F-10.271446578394382
F5.908969404252148
F-8.430704772897197
F12.28371206082838
F-9.162577988429323
F3.810776300209115
F1.4305823953051395
F-6.133447329136637
F5.0893358277638905
F-2.7883207950782403
F-2.9193541463602783
F8.074274481649903
F-6.503776309721815
F6.819468809956735
F-2.1599691686912794
F-3.0430051788805237
F1.8144131345850716
F2.8846175276466655
F-10.590629229291684
F8.667331488716627
F-1.769634365232344
F1.306271785716783
F3.017353354796181
F-6.1865802966428305
F5.334077265313073
F-7.409427924556877
F6.913675634492059
F-2.081856149816888
F1.272228303455672
F-4.065905484221488
F3.6235832725736565
F1.4121100595751472
F2.650784969820227
F-6.4991796412577285
F0.4854522969001724
F5.762928269670121
F-3.398710625481064
F-1.280822614146563
F0.051496305894893034
F0.1031935298521925
F12.984770450615793
F-21.61949353337252
F10.28241777012642
F0.41694035719306255
F1.1639805782672388
F-4.279243821298663
F0.9853110343824231
F3.5994226910207257
F-9.805033807452554
F7.331985876608062
F3.559851387496524
F-5.297914683783332
F6.55882365315158
F-8.181563503942439
F4.684074439456409
F-2.6728365861627874
F-1.8475667291343203
F11.233918853847479
F-12.752310731639906
F2.4130192431666275
F5.975439448585536
F-7.514147942849192
F-3.1873730064034915
F11.609630444846372
F-16.26724330097183
F12.929828791469607
F-4.1701534564957345
F1.5309133600651978
F-0.7367059571525394
F4.92554064785997
F-3.6299817881242817
F-8.575350402957854
F6.697056668464292
F3.594999013622972
F-3.0482025627652094
F-1.2779811079895431
F-0.08806462390436297
F0.0008147370647900908
F-6.441298627962118
F6.494642103783264
F7.383458237963009
F-4.991564096563091
F-9.281620990622994
F19.997332449836314
F-16.277643660472805
F-5.032474501725145
F5.957953620588669
F-2.1132861583422136
F5.204845482967683
F-0.4298413957728205
F-1.659211712107689
F-3.4528448215082777
F5.022012752497579
F-7.278120907408839
F5.305987102791495
F1.4213722777982072
F5.302104347686752
F-0.011406614596439567
F-8.807812100158872
F3.5606692578448853
F-0.18214641658322225
F-1.8688977466484344
F-7.519711766239956
F3.3464545480325456
F3.426603953438546
F3.7056619797729735
F-9.449782227154767
F-10.082492606877668
F16.479325484984056
F-5.464314118486961
F-0.6908606101522348
F3.7935799274743705
F-15.722880806960038
F10.26176456128292
F-1.464045221989731
F1.201133677295295
F-4.065677344356334
F-13.064251355273118
F2.718918814513141
F11.915418727961585
F-8.123354504864759
F-7.454077949319447
F11.156527532892337
F-5.800231567634008
F-7.9137144055147655
F3.379464038291535
F1.4274438947293717
F3.5318079161079794
F-6.528367687792644
F-10.331589183300773
F4.565812945038157
F8.758483495044834
F-15.35217126316123
F9.661117264747237
F-13.391876467059012
F3.963430124358315
F21.8814589208261
F-21.604127894259552
F-0.1000309540736776
F14.90699157498867
F-24.8251096985401
F7.766389753550562
F21.922326776414902
F-34.049963481023326
F0.998026305118592
F22.399083717797286
F-6.951193872517229
F-7.349903623700915
F4.011935104533914
F-7.359059566603211
F6.073996461970352
F-4.8918738297423285
F12.741638712579471
F-12.312503167764234
F-2.8218957440274988
F23.074577909052792
F-22.699795729899986
F1.724021805755824
F7.721007738200485
F-3.500743203476886
F-6.9676133434699725
F11.382969840818047
F-0.19933936041263187
F-7.394056356960406
F-7.172571520138221
F6.349953876176966
F11.413945313049968
F-5.584089326217234
F0.29324846813577576
F3.640152227204503
F-11.083933632958004
F1.1700938842415032
F2.6487637423882338
F5.632680656720475
F-2.2721431544472757
F6.658300050833703
F-2.818272975614531
F-3.426925735522484
F-7.350531511630495
F1.0299660650320304
F19.753519101308587
F-0.7601526199429464
F-4.929877027261879
F-5.831193830060636
F5.910106450120049
F4.433049478187795
F-10.95910513544056
F11.67230945383956
F-1.297237780275793
F-4.623375872210424
F4.943161363934945
F-11.349776783318942
F11.662921028631704
F11.187318074246889
F-11.333695137916315
F0.23542603537548
F-6.055302758923023
F-12.131617476628442
F23.725226270631374
F-11.98942252009872
F-24.834693899921817
F23.715830223211007
F0.0581802635152131
F5.75435600821895
F-5.698580265500947
F-0.997662231038077
F0.8532489250991514
F-14.096543110494245
F12.826101224204312
F6.196431031572948
F-5.8067284613453145
F-20.52976866019289
F11.186400246672877
F21.228140366755632
F-6.318887326159505
F5.881580031625544
F-17.84499027783675
F2.002307070952642
F18.504910710183317
F-16.97888508536474
F22.103741770907394
F-25.38048271957518
F-12.752739973086676
F31.169811368026973
F-13.217304491084995
F-9.743287431475768
F21.63408122430194
F-3.674512848324487
F-32.2164116359577
F11.37941405402005
F25.517784718719298
F-6.688556759788231
F-15.770004686599641
F-2.3799137241025012
F8.629592480640772
F-7.347753674534759
F-2.522374733453134
F1.5549012197045446
F-2.4841811548847397
F8.984496086431655
F-7.503946575597512
F-10.235148564597997
F6.480676106748592
F2.224309008716109
F-3.357995367068668
F9.792263899180467
F-15.20505299780571
F8.506295246371112
F19.032897598140455
F-24.10861229808293
F17.7960454078066
F-4.127245443306783
F-14.822833420701036
F18.453707378614283
F-4.188295888930685
F-7.546479988994183
F7.614011630416739
F-0.44079844762589504
F12.052669285416448
F-35.705475128624926
F15.02091410703579
F32.040330125097725
F-2.8083147078346213
F-24.398875112691236
F15.875453545205724
F-6.298906206149524
F-35.519976750859755
F25.093339381785114
F-0.21515008197220273
F-8.455660640545233
F2.53737251369535
F26.88110529844219
F-7.777486421659968
F-38.71464480311987
F-1.5927444180412593
F53.493601852437166
F-28.120211883044405
F8.18998412895029
F-2.1413362267266254
F-12.55519046940528
F12.202312103974599
F-21.57990160846955
F40.43273746798395
F4.104854250440183
F-51.92518623537383
F46.724308464515225
F-7.8884374656611
F-24.731950744458914
F9.350000262993419
F23.22154895075966
F-32.08475088944568
F51.01905792013465
F0.6781566413056245
F-59.64520359037378
F-0.81484283311076
F-27.692559865768356
F43.13704919900175
F27.513504574251613
F-54.513696339282674
F16.94768113255838
F19.125864148820792
F-19.961303264216806
F28.690896378247338
F-9.653629106545264
F-17.126077683245732
F-51.87185763614947
F48.37447658742963
F7.216548320304502
F32.619832718067094
F-51.30976537789773
F38.39029026970321
F14.669447799463551
F-63.2097780392427
F8.341434365748551
F11.33514794228729
F-3.905539245269292
F44.00761973266698
F-18.3464294070629
F-35.37970691592335
F3.122423844211935
F-28.974799632071836
F54.77586933253902
F4.976732699039567
F-38.31656569013303
F13.60604381089833
F-15.564032870169301
F33.13559490350177
F5.954794790957463
F-50.30321048512936
F17.970284791232014
F40.952538635531866
F-35.20768746196795
F2.0091514757979425
F51.21271728504759
F-61.39584776248848
F34.42715922950119
F-34.80815930525708
F44.671162834495746
F-17.45624294263266
F18.45170395903697
F-27.887489273178204
F-20.230370122207958
F-39.34936180327738
F75.35170841323713
F32.53533615723074
F-90.30669292642163
F28.900514760639005
F60.72196938542325
F-91.21680709468822
F18.25604520887923
F52.41852402128191
F-41.35541786980762
F-23.0479334265282
F31.34575008908623
F-30.163449348759418
F-32.72031669633911
F186.3124714874295
F-178.5976610823014
F-6.356664517941961
F92.49508536117663
F-44.545442433263084
F-26.216623799849522
F24.176909808988874
F-36.67933381549633
F27.938824124622585
F90.29452427146533
F-52.46668777961948
F35.26067620995334
F-130.7369437975148
F53.492529091274044
F-68.42462437685354
F45.63143596703373
F38.22577806375526
F-10.253092187197964
F-42.168866327925144
F18.496514029156522
F61.608717896783965
F-63.74042051130795
F73.30591863919962
F-21.155501928204234
F56.14069188091567
F-119.04032056677273
F32.214712529776385
F-25.049827652160353
F78.4011300979849
F-34.336565846160866
F35.75074637193631
F-45.289268796352054
F-0.4430400731278217
F9.515025260818483
F67.15243554823525
F40.70312101971888
F-240.14544484346624
F230.9243057428436
F-74.88080830700802
F-102.46658962552954
F232.9010750072034
F-126.90499063931455
F-116.77913536338758
F187.74838258598723
F-112.06639157358013
F-46.05517850434826
F33.21366276807227
F-72.72553377962205
F181.27302530731728
F-183.77931721352127
F203.13008521185324
F-119.77812772696288
F-49.221272481714415
F74.41132320365251
F81.57983041278756
F-198.6647407808924
F209.04869886534283
F-159.9834975461486
F101.89752419824433
F-103.93323221855455
F122.34455499127283
F-15.520579567243718
F-108.55465196991904
F126.98951833288993
F-6.990680817936594
F-54.789399926598215
F48.28642454134819
F-123.10695595666118
F73.35860067663883
F68.79004574761484
F-6.520164341040798
F-67.73090390970711
F16.7527910020542
F133.84120475439073
F-82.73607202276649
F-127.64347356918452
F128.39280362586288
F-130.37183071305247
F139.2458314117477
F-81.32947113410486
F-55.366346216424844
F225.64871394029237
F-82.1832096117524
F-76.46530712430797
F-14.73593006567765
F-140.4908984680781
F231.5455877305365
F-79.57424621876002
F-0.24014476588940822
F7.399546432747842
F76.5137086229995
F-88.58639377058533
F-60.47297454553316
F308.2165680898873
F-497.0113128896292
F341.26679771656705
F-99.20503132877734
F-163.9541713147266
F263.01913111546213
F-89.83887748606635
F10.967529169576565
F178.57849587095816
F-207.94268195177102
F-343.3908013601042
F741.9978339657504
F-474.4873733567314
F100.44962141437584
F84.56567138553999
F-289.74237646967526
F205.76642514684627
F197.80120202632642
F-197.6138831707451
F89.09786135181851
F-403.8227043733399
F516.5521595392365
F-318.6895345994097
F1.6403519628728784
F211.58879550530273
F-217.29874001977433
F111.95034609991176
F111.15093311390333
F-111.55247981569106
F2.750100043255595
F116.12952876080742
F-1.319047579653377
F-346.5279175484965
F589.9532826908342
F-474.7498330552513
F119.81766340853142
F124.22976067026377
tp17
abag0
(g7
g2
Ntp18
Rp19
(lp20
F100.0
aF20.0
a(ta(F0.0
F0.0017730496453900709
F0.0035460992907801418
F0.005319148936170213
F0.0070921985815602835
F0.008865248226950354
F0.010638297872340425
F0.012411347517730497
F0.014184397163120567
F0.015957446808510637
F0.017730496453900707
F0.01950354609929078
F0.02127659574468085
F0.02304964539007092
F0.024822695035460994
F0.02659574468085106
F0.028368794326241134
F0.030141843971631204
F0.031914893617021274
F0.03368794326241135
F0.035460992907801414
F0.03723404255319149
F0.03900709219858156
F0.040780141843971635
F0.0425531914893617
F0.04432624113475177
F0.04609929078014184
F0.047872340425531915
F0.04964539007092199
F0.051418439716312055
F0.05319148936170212
F0.054964539007092195
F0.05673758865248227
F0.05851063829787234
F0.06028368794326241
F0.062056737588652475
F0.06382978723404255
F0.06560283687943262
F0.0673758865248227
F0.06914893617021277
F0.07092198581560283
F0.07269503546099292
F0.07446808510638298
F0.07624113475177303
F0.07801418439716312
F0.07978723404255318
F0.08156028368794327
F0.08333333333333333
F0.0851063829787234
F0.08687943262411348
F0.08865248226950354
F0.09042553191489362
F0.09219858156028368
F0.09397163120567376
F0.09574468085106383
F0.09751773049645389
F0.09929078014184398
F0.10106382978723404
F0.10283687943262411
F0.10460992907801418
F0.10638297872340424
F0.10815602836879433
F0.10992907801418439
F0.11170212765957446
F0.11347517730496454
F0.1152482269503546
F0.11702127659574468
F0.11879432624113474
F0.12056737588652482
F0.12234042553191489
F0.12411347517730495
F0.12588652482269502
F0.1276595744680851
F0.12943262411347517
F0.13120567375886524
F0.13297872340425532
F0.1347517730496454
F0.13652482269503546
F0.13829787234042554
F0.14007092198581558
F0.14184397163120566
F0.14361702127659573
F0.14539007092198583
F0.14716312056737588
F0.14893617021276595
F0.15070921985815602
F0.15248226950354607
F0.15425531914893617
F0.15602836879432624
F0.1578014184397163
F0.15957446808510636
F0.16134751773049644
F0.16312056737588654
F0.16489361702127658
F0.16666666666666666
F0.16843971631205673
F0.1702127659574468
F0.17198581560283688
F0.17375886524822695
F0.175531914893617
F0.17730496453900707
F0.17907801418439717
F0.18085106382978725
F0.1826241134751773
F0.18439716312056736
F0.18617021276595744
F0.1879432624113475
F0.18971631205673758
F0.19148936170212766
F0.1932624113475177
F0.19503546099290778
F0.19680851063829788
F0.19858156028368795
F0.200354609929078
F0.20212765957446807
F0.20390070921985815
F0.20567375886524822
F0.2074468085106383
F0.20921985815602837
F0.2109929078014184
F0.21276595744680848
F0.21453900709219859
F0.21631205673758866
F0.2180851063829787
F0.21985815602836878
F0.22163120567375885
F0.22340425531914893
F0.225177304964539
F0.22695035460992907
F0.22872340425531915
F0.2304964539007092
F0.2322695035460993
F0.23404255319148937
F0.2358156028368794
F0.23758865248226949
F0.23936170212765956
F0.24113475177304963
F0.2429078014184397
F0.24468085106382978
F0.24645390070921985
F0.2482269503546099
F0.25
F0.25177304964539005
F0.25354609929078015
F0.2553191489361702
F0.25709219858156024
F0.25886524822695034
F0.26063829787234044
F0.2624113475177305
F0.26418439716312053
F0.26595744680851063
F0.26773049645390073
F0.2695035460992908
F0.2712765957446808
F0.2730496453900709
F0.274822695035461
F0.2765957446808511
F0.2783687943262411
F0.28014184397163117
F0.28191489361702127
F0.2836879432624113
F0.2854609929078014
F0.28723404255319146
F0.28900709219858156
F0.29078014184397166
F0.29255319148936165
F0.29432624113475175
F0.2960992907801418
F0.2978723404255319
F0.299645390070922
F0.30141843971631205
F0.30319148936170215
F0.30496453900709214
F0.30673758865248224
F0.30851063829787234
F0.3102836879432624
F0.3120567375886525
F0.31382978723404253
F0.3156028368794326
F0.3173758865248227
F0.3191489361702127
F0.32092198581560283
F0.3226950354609929
F0.324468085106383
F0.3262411347517731
F0.32801418439716307
F0.32978723404255317
F0.3315602836879432
F0.3333333333333333
F0.3351063829787234
F0.33687943262411346
F0.33865248226950356
F0.3404255319148936
F0.34219858156028365
F0.34397163120567376
F0.3457446808510638
F0.3475177304964539
F0.349290780141844
F0.351063829787234
F0.3528368794326241
F0.35460992907801414
F0.35638297872340424
F0.35815602836879434
F0.3599290780141844
F0.3617021276595745
F0.3634751773049645
F0.3652482269503546
F0.3670212765957447
F0.36879432624113473
F0.37056737588652483
F0.3723404255319149
F0.374113475177305
F0.375886524822695
F0.37765957446808507
F0.37943262411347517
F0.3812056737588652
F0.3829787234042553
F0.3847517730496454
F0.3865248226950354
F0.3882978723404255
F0.39007092198581556
F0.39184397163120566
F0.39361702127659576
F0.3953900709219858
F0.3971631205673759
F0.3989361702127659
F0.400709219858156
F0.4024822695035461
F0.40425531914893614
F0.40602836879432624
F0.4078014184397163
F0.4095744680851064
F0.41134751773049644
F0.4131205673758865
F0.4148936170212766
F0.41666666666666663
F0.41843971631205673
F0.42021276595744683
F0.4219858156028368
F0.4237588652482269
F0.42553191489361697
F0.42730496453900707
F0.42907801418439717
F0.4308510638297872
F0.4326241134751773
F0.4343971631205673
F0.4361702127659574
F0.4379432624113475
F0.43971631205673756
F0.44148936170212766
F0.4432624113475177
F0.4450354609929078
F0.44680851063829785
F0.4485815602836879
F0.450354609929078
F0.45212765957446804
F0.45390070921985815
F0.45567375886524825
F0.4574468085106383
F0.45921985815602834
F0.4609929078014184
F0.4627659574468085
F0.4645390070921986
F0.46631205673758863
F0.46808510638297873
F0.4698581560283687
F0.4716312056737588
F0.4734042553191489
F0.47517730496453897
F0.4769503546099291
F0.4787234042553191
F0.4804964539007092
F0.48226950354609927
F0.4840425531914893
F0.4858156028368794
F0.48758865248226946
F0.48936170212765956
F0.49113475177304966
F0.4929078014184397
F0.49468085106382975
F0.4964539007092198
F0.4982269503546099
F0.5
F0.50177304964539
F0.5035460992907801
F0.5053191489361701
F0.5070921985815603
F0.5088652482269503
F0.5106382978723404
F0.5124113475177304
F0.5141843971631205
F0.5159574468085106
F0.5177304964539007
F0.5195035460992907
F0.5212765957446809
F0.5230496453900708
F0.524822695035461
F0.526595744680851
F0.5283687943262411
F0.5301418439716312
F0.5319148936170213
F0.5336879432624113
F0.5354609929078015
F0.5372340425531914
F0.5390070921985816
F0.5407801418439716
F0.5425531914893617
F0.5443262411347518
F0.5460992907801419
F0.5478723404255319
F0.549645390070922
F0.551418439716312
F0.5531914893617021
F0.5549645390070922
F0.5567375886524822
F0.5585106382978723
F0.5602836879432623
F0.5620567375886525
F0.5638297872340425
F0.5656028368794326
F0.5673758865248226
F0.5691489361702128
F0.5709219858156028
F0.5726950354609929
F0.5744680851063829
F0.576241134751773
F0.5780141843971631
F0.5797872340425532
F0.5815602836879433
F0.5833333333333333
F0.5851063829787233
F0.5868794326241135
F0.5886524822695035
F0.5904255319148937
F0.5921985815602836
F0.5939716312056736
F0.5957446808510638
F0.5975177304964538
F0.599290780141844
F0.6010638297872339
F0.6028368794326241
F0.6046099290780141
F0.6063829787234043
F0.6081560283687943
F0.6099290780141843
F0.6117021276595744
F0.6134751773049645
F0.6152482269503546
F0.6170212765957447
F0.6187943262411346
F0.6205673758865248
F0.6223404255319148
F0.624113475177305
F0.625886524822695
F0.6276595744680851
F0.6294326241134751
F0.6312056737588652
F0.6329787234042553
F0.6347517730496454
F0.6365248226950354
F0.6382978723404255
F0.6400709219858156
F0.6418439716312057
F0.6436170212765957
F0.6453900709219857
F0.6471631205673758
F0.648936170212766
F0.650709219858156
F0.6524822695035462
F0.6542553191489361
F0.6560283687943261
F0.6578014184397163
F0.6595744680851063
F0.6613475177304965
F0.6631205673758864
F0.6648936170212766
F0.6666666666666666
F0.6684397163120567
F0.6702127659574468
F0.6719858156028368
F0.6737588652482269
F0.675531914893617
F0.6773049645390071
F0.6790780141843972
F0.6808510638297872
F0.6826241134751773
F0.6843971631205673
F0.6861702127659575
F0.6879432624113475
F0.6897163120567377
F0.6914893617021276
F0.6932624113475176
F0.6950354609929078
F0.6968085106382979
F0.698581560283688
F0.7003546099290779
F0.702127659574468
F0.7039007092198581
F0.7056737588652482
F0.7074468085106383
F0.7092198581560283
F0.7109929078014184
F0.7127659574468085
F0.7145390070921985
F0.7163120567375887
F0.7180851063829786
F0.7198581560283688
F0.7216312056737588
F0.723404255319149
F0.725177304964539
F0.726950354609929
F0.7287234042553191
F0.7304964539007092
F0.7322695035460993
F0.7340425531914894
F0.7358156028368794
F0.7375886524822695
F0.7393617021276595
F0.7411347517730497
F0.7429078014184397
F0.7446808510638298
F0.7464539007092198
F0.74822695035461
F0.75
F0.75177304964539
F0.7535460992907801
F0.7553191489361701
F0.7570921985815603
F0.7588652482269503
F0.7606382978723405
F0.7624113475177304
F0.7641843971631205
F0.7659574468085106
F0.7677304964539007
F0.7695035460992908
F0.7712765957446808
F0.7730496453900708
F0.774822695035461
F0.776595744680851
F0.7783687943262412
F0.7801418439716311
F0.7819148936170213
F0.7836879432624113
F0.7854609929078015
F0.7872340425531915
F0.7890070921985815
F0.7907801418439716
F0.7925531914893617
F0.7943262411347518
F0.7960992907801419
F0.7978723404255318
F0.799645390070922
F0.801418439716312
F0.8031914893617021
F0.8049645390070922
F0.8067375886524822
F0.8085106382978723
F0.8102836879432623
F0.8120567375886525
F0.8138297872340425
F0.8156028368794326
F0.8173758865248226
F0.8191489361702128
F0.8209219858156028
F0.8226950354609929
F0.8244680851063829
F0.826241134751773
F0.8280141843971631
F0.8297872340425532
F0.8315602836879433
F0.8333333333333333
F0.8351063829787233
F0.8368794326241135
F0.8386524822695035
F0.8404255319148937
F0.8421985815602836
F0.8439716312056736
F0.8457446808510638
F0.8475177304964538
F0.849290780141844
F0.8510638297872339
F0.8528368794326241
F0.8546099290780141
F0.8563829787234043
F0.8581560283687943
F0.8599290780141843
F0.8617021276595744
F0.8634751773049645
F0.8652482269503546
F0.8670212765957447
F0.8687943262411346
F0.8705673758865248
F0.8723404255319148
F0.874113475177305
F0.875886524822695
F0.8776595744680851
F0.8794326241134751
F0.8812056737588652
F0.8829787234042553
F0.8847517730496454
F0.8865248226950354
F0.8882978723404255
F0.8900709219858156
F0.8918439716312057
F0.8936170212765957
F0.8953900709219857
F0.8971631205673758
F0.898936170212766
F0.900709219858156
F0.9024822695035462
F0.9042553191489361
F0.9060283687943261
F0.9078014184397163
F0.9095744680851063
F0.9113475177304965
F0.9131205673758864
F0.9148936170212766
F0.9166666666666666
F0.9184397163120567
F0.9202127659574468
F0.9219858156028368
F0.9237588652482269
F0.925531914893617
F0.9273049645390071
F0.9290780141843972
F0.9308510638297871
F0.9326241134751773
F0.9343971631205673
F0.9361702127659575
F0.9379432624113475
F0.9397163120567374
F0.9414893617021276
F0.9432624113475176
F0.9450354609929078
F0.9468085106382979
F0.9485815602836879
F0.9503546099290779
F0.952127659574468
F0.9539007092198581
F0.9556737588652482
F0.9574468085106382
F0.9592198581560283
F0.9609929078014184
F0.9627659574468085
F0.9645390070921985
F0.9663120567375886
F0.9680851063829786
F0.9698581560283688
F0.9716312056737588
F0.973404255319149
F0.9751773049645389
F0.976950354609929
F0.9787234042553191
F0.9804964539007092
F0.9822695035460993
F0.9840425531914893
F0.9858156028368794
F0.9875886524822695
F0.9893617021276595
F0.9911347517730497
F0.9929078014184396
F0.9946808510638298
F0.9964539007092198
F0.99822695035461
F1.0
tp21
a(F0.0
F1.2518892558915617
F-1.1949470541623135
F-1.2748184301232242
F-0.08718318450036157
F1.2373777643055852
F1.319767776555316
F-2.4901483290276714
F3.7683181870295495
F-2.3896705202394526
F-2.7194702776117388
F1.1222300546375994
F1.3503827799449357
F4.083517523397114
F-5.080531856149591
F2.4282119880391884
F-1.1771048081440116
F-2.820231549066469
F3.9210441867955583
F-1.1218582453657935
F-0.06856808670084107
F-1.4030447376374093
F1.2859246866372513
F2.948778835370228
F-4.012816887660425
F-0.33236060004648693
F2.8701041327767554
F-1.2016690028108745
F-0.0980569844022929
F1.4841235583349397
F-2.7969646105729264
F-0.28516966025604806
F1.4751840648809642
F1.6455637675766632
F-2.867021816823876
F4.323363269265574
F-2.587753149649199
F-3.390596750250485
F2.7761462568581425
F0.29012409943812795
F1.6043832447967417
F-4.571589033116097
F7.451190508079679
F-7.070980235113826
F2.3058943804226146
F3.6401533397663446
F-7.7681679544872715
F5.579586931849521
F0.8056337006996731
F0.08765494432011663
F-3.3056127674734883
F1.2633208422302729
F1.925494556044488
F-3.1358037511349894
F-0.5069089548000812
F5.208793854969491
F-0.9407650123833008
F-3.6808248187470283
F1.281187165918597
F-1.5359262962777565
F3.2966549076770484
F-3.022442183090893
F3.082906094966687
F-1.2187998526541155
F-5.788256364270769
F8.294392565550348
F1.5433772292640076
F-7.377124903574411
F2.5495326750951692
F-1.3117721645694227
F3.4866508597611348
F-5.069867911009645
F6.673607804215991
F-6.32288363783667
F6.402298970095703
F-4.401535698645711
F4.846204129079515
F-2.684969920732446
F-0.7188755476082714
F0.029919171023436036
F-4.048638998283703
F3.216598211296727
F4.906007980362107
F-7.293875474683422
F4.5238326116679035
F-2.880034229572013
F3.3628137425643714
F3.093791387734104
F-7.947305873751888
F4.571687931713297
F-0.6687770756629264
F-2.6049625788425903
F6.024688251363954
F-2.7471955281303826
F-5.376936645578279
F5.610663705789587
F-2.90705229887196
F1.206873202978571
F0.5504883625467422
F2.3280025869600003
F-3.947881054612622
F-3.4317708582474014
F3.9566578349824186
F1.144696455081495
F0.04130007400415932
F0.04190278476318345
F0.04251043691958753
F2.454598723286892
F-1.682194957156206
F1.875010169390627
F-6.5810365218485805
F5.354386139309827
F-7.83237077524818
F12.001004179069279
F-5.613716076670336
F-2.752165152769243
F4.963754203312028
F1.6005998066627722
F-4.98372207187046
F6.237614455180111
F-10.490204160694876
F1.1963884439240924
F6.675628725853267
F1.741681582068149
F-2.503687393842337
F-0.7310639223154775
F0.05576606604407284
F2.768078418350536
F-1.7219498733963334
F-0.7774744638109403
F0.05979553451912248
F-8.274493893431883
F11.015287758502607
F-3.6449923025851723
F2.8310939204085583
F-6.363687088215727
F2.5220730880751647
F7.737534024066838
F-6.288097662621288
F5.621792455947009
F-5.432784215204569
F-0.14948106335558203
F9.970625572824883
F-11.282976946682325
F0.5124947800573673
F-0.8004680062135464
F7.9465902490146
F-5.502483342920403
F-0.3478392611901226
F-1.8596850767310629
F4.956714379684584
F-3.6406574600251367
F0.6454508941079151
F1.3008820549387015
F3.240623566413922
F-8.088688134824343
F8.807578133671992
F2.2758733664538164
F-1.0195831329649117
F-16.042129459464412
F15.749828457211187
F-6.537824937104848
F-0.42441755865744935
F2.866916636884586
F-6.625006335350573
F7.036359780852534
F11.408772098658236
F-13.604955768998572
F6.03751632961967
F-3.8184169115638493
F-1.2049963614070016
F-5.265786315629606
F3.4827379639766085
F10.394144814100867
F0.10778337845149216
F-12.010126278822705
F5.5392591469386
F-1.9396189564395878
F-3.450561846700065
F14.50930716436226
F-10.745416317972078
F2.0287318280544455
F5.6429366165526655
F-14.729190730566538
F7.379780578589002
F7.655802928219025
F-11.073195501679123
F5.455896180587677
F2.2490123713102217
F2.023742696683121
F-1.5641701001850286
F-1.8983770498246693
F0.120433688795316
F4.084916386281148
F-5.516920685069331
F-0.36971282126466437
F2.296611588409038
F0.12679462556930463
F-3.9347434609205685
F5.854846563219409
F-3.324250465963905
F7.577917488394602
F-8.89181721975178
F2.7754319416263455
F7.440355607001829
F-8.018632304152145
F3.498241097282751
F-7.462623757114208
F0.690384307083197
F0.9216474737981105
F1.6694508168697628
F11.443352760170148
F-7.205175385733603
F0.6725709478336878
F-3.0157975426874883
F7.752122630835636
F-13.483646814917789
F3.481811610846296
F11.719357532630722
F-4.066974413176602
F-7.358495195724295
F6.071179096518071
F1.8700699509729288
F-12.144427043646632
F12.008245095768634
F-5.472381231680792
F-3.5549020505635074
F11.194428616912855
F-5.702887117610041
F12.388468808699859
F-19.467256545726748
F14.365101773923467
F4.13451786671318
F-17.277810013717858
F-5.030002229126754
F20.79482289179223
F-1.0055743629539857
F-9.565996677915308
F8.847959770809124
F-5.822159877507897
F-7.6404072293365966
F10.069988901369141
F-2.093958502291439
F-2.689111565958661
F9.283969094625931
F9.699491515289585
F-5.630180646359334
F-18.315020528739606
F-8.83706402685181
F31.513791926797843
F-5.301592695856547
F-15.231484009163157
F8.826373101617056
F0.21594932997016467
F0.21798392387199855
F0.22003519863911525
F-10.678859923219871
F6.660964156875926
F25.84993756334186
F-23.02731465788347
F-12.228127373217136
F20.124788978283807
F5.481237968247162
F-16.465686677584493
F7.410105914994253
F-7.565301095910361
F-3.26653322056933
F3.8939551812288453
F1.171741192153393
F10.66824888931147
F-10.931716505232451
F6.17660612183972
F5.699115006173729
F-11.284277194845764
F6.2756394676767
F-0.0012532426945496221
F-11.708450203669026
F-0.11048232105249539
F5.909749582138494
F6.207271162603454
F-18.202136908839822
F17.819614341104387
F13.597531148336168
F-25.0767629982527
F-6.425080985574986
F18.259030025765277
F-4.918776361397365
F4.6278946647569255
F9.35356272321124
F-14.947718738459812
F1.9245843985388014
F-8.573054871537186
F27.327435007024796
F1.9991180254217293
F-20.341319899144278
F-0.7905233649125852
F14.169751127423357
F-5.201437477410342
F-15.040650255043346
F26.593539608587577
F-1.595878612111203
F-32.191203589772165
F21.108482370470366
F2.872270522716143
F-2.409247237014672
F-10.68547760599349
F0.9140035640016543
F28.408122576372808
F-23.242775766383254
F12.475081657515604
F-8.381227037918983
F-9.012850832750283
F16.598618313921435
F-28.872531287046442
F15.835817613154644
F9.263457667530092
F0.31706855668792394
F0.31993218885476654
F-21.663783872303615
F-14.699802778644745
F33.1960382864348
F-1.898066533305787
F-22.610808584138578
F31.375570999958093
F-12.475246744640414
F-33.33506942780288
F33.60840284695113
F-2.8739637135512175
F-4.6620431161635745
F-6.548024440703417
F-16.42661028938405
F-3.5358567997998755
F46.80614065212723
F-21.40068610687367
F33.959233640304845
F-21.910565484515487
F-20.076614398987985
F23.483109931554946
F0.2888694380884547
F0.2915018763556076
F0.29415589698770317
F-7.726081185540715
F-20.4040097900213
F18.653470955733727
F35.13486397076711
F-40.92712590048258
F-2.038754022080806
F23.034134816167015
F-34.59185155384207
F2.362587964158131
F34.921351071660496
F6.049965538369693
F3.530447312732761
F-21.03317575221407
F-52.05786124546703
F47.74231835694705
F2.1349409044453664
F21.246779655104405
F-31.3920048404256
F-12.884034428417614
F12.164022450403492
F-4.932509916456567
F20.13487911863646
F-21.091434736282388
F38.654188667417486
F-23.797099306948063
F-25.354138115710693
F17.88791799020618
F30.978464507121316
F-39.86156593926944
F50.35431773397137
F-7.5674107753474
F-42.81425656759242
F-0.7874967154868363
F70.91762575163307
F-43.328823175593044
F10.15751073857531
F-91.57611638032591
F33.88774925016397
F46.8218572050879
F-39.10340777154932
F37.57719924504033
F-8.911349598704243
F-19.505856047019357
F-0.823317937091294
F17.831575286945426
F-6.428172713469139
F-73.8886587883078
F68.08154229434068
F10.956919096548262
F6.712806450190455
F26.628244000124745
F-47.24650940479272
F39.491982439507375
F-81.34718707527101
F74.29285999826531
F-34.59271115816409
F-97.41157628500865
F115.10928412865361
F32.47136161580092
F-74.27930911744349
F65.19080225408803
F20.28531837853643
F-71.30411030356373
F18.12166820935143
F11.384020385606036
F-81.81039162228942
F67.88517885346192
F21.31353702760769
F-37.93245940524017
F64.13291438400903
F-74.78821891348966
F59.864968252005866
F-64.07120378978988
F-18.51416668603842
F35.47907767324899
F16.86427220801796
F-28.025983350103406
F-11.110794608114965
F-10.494091813024463
F36.05150511754459
F-38.976779792330696
F47.65912686528567
F-21.342866791050007
F50.065924304857155
F30.93968754874175
F-110.48989612485877
F-23.161597120831246
F112.20450049504728
F-30.560188121868414
F0.057670046035481703
F-29.90081243804464
F-60.556352942353755
F121.64636348240968
F-33.29939150480522
F-9.483006472004554
F-25.53841163939402
F54.02636161416342
F19.92793761568718
F-144.11315422980442
F123.24766714608096
F42.10536926510382
F-116.38430745256404
F-9.1813394462144
F89.20264469644746
F-53.64185833766897
F54.3411133179373
F-55.1454676479861
F66.32817277206075
F-37.831777991223824
F10.063829265257832
F20.091343876103284
F-69.35559341080119
F29.08479227557962
F-21.086110039643778
F71.77667919674995
F-40.475156613285236
F0.01580932303063254
F-10.25838736175692
F-3.508072227078351
F135.06510904186914
F-183.17787893704718
F-46.5230519569122
F35.7296950168898
F150.53469804142495
F-116.04555492223027
F82.69749623662094
F-45.88810119960705
F-9.95781834987828
F-28.71138858827339
F86.21926063956627
F-47.542203819893935
F9.649607690157483
F31.24304079062989
F-90.28522686425318
F59.098514164504955
F42.41294944390603
F-50.425737315324994
F-9.259446631110292
F-35.64298177864913
F68.79701322090776
F-177.86329881918786
F222.5234319966552
F40.39058428633316
F-99.10005827818105
F37.77701942854675
F-103.30660524444261
F55.92572714538704
F0.029641806015720862
F-27.651481607270632
F-143.02949675582298
F235.15849067159522
F-7.183585275994461
F-40.823519471441266
F78.07678341131641
F-280.2740883429503
F199.7145170098632
F93.13395861161987
F-227.3771641965928
F172.96061167939496
F-111.5371828166101
F121.89969846660878
F-82.03517684080894
F-110.69067851881982
F201.61743365609587
F-22.811279709516754
F-183.39475936106982
F199.4599772189613
F-52.8918174109876
F129.45257888801163
F-149.38507960896018
F-65.67430959024303
F79.972055665014
F67.0524692764508
F-81.02733638800989
F-68.71795928112516
F66.88684649464226
F-55.074550618855284
F195.80221155344682
F-363.5522972700415
F314.337795579856
F-4.418374913004203
F-64.78036175630625
F138.0317991768398
F-316.19443728712054
F163.71547786803916
F6.44669237101404
F80.70616217629706
F-84.56336182423651
F-6.805978877270092
F-69.94816535231509
F255.45535870384003
F-187.9061595672238
F-172.2973017408138
F185.37170213320582
F81.91212328717542
F-174.96204353685937
F188.7973843810163
F-7.496194239693373
F-186.89922432867465
F95.46889302422791
F-5.057785249952033
F-106.00615309054312
F-85.29417655849244
F398.6852487805716
F-108.99703568191867
F-299.4392580305651
F310.7286728490399
F-0.3277200121838757
F-107.74345457534994
F-107.8831214740087
F1.9109638335468941
F215.1397831827924
F-110.38495807189807
F-111.72779270684796
F119.90598685886802
F327.31945263046697
F-671.6359169931577
F454.843080371232
F1.0836825374177423
F-237.93144871985314
F-119.931415753082
F356.47250113267353
F-119.980265372065
F-124.39236263375697
tp22
abag0
(g7
g2
Ntp23
Rp24
(lp25
F100.0
aF20.0
a(ta(F0.0
F0.0017730496453900709
F0.0035460992907801418
F0.005319148936170213
F0.0070921985815602835
F0.008865248226950354
F0.010638297872340425
F0.012411347517730497
F0.014184397163120567
F0.015957446808510637
F0.017730496453900707
F0.01950354609929078
F0.02127659574468085
F0.02304964539007092
F0.024822695035460994
F0.02659574468085106
F0.028368794326241134
F0.030141843971631204
F0.031914893617021274
F0.03368794326241135
F0.035460992907801414
F0.03723404255319149
F0.03900709219858156
F0.040780141843971635
F0.0425531914893617
F0.04432624113475177
F0.04609929078014184
F0.047872340425531915
F0.04964539007092199
F0.051418439716312055
F0.05319148936170212
F0.054964539007092195
F0.05673758865248227
F0.05851063829787234
F0.06028368794326241
F0.062056737588652475
F0.06382978723404255
F0.06560283687943262
F0.0673758865248227
F0.06914893617021277
F0.07092198581560283
F0.07269503546099292
F0.07446808510638298
F0.07624113475177303
F0.07801418439716312
F0.07978723404255318
F0.08156028368794327
F0.08333333333333333
F0.0851063829787234
F0.08687943262411348
F0.08865248226950354
F0.09042553191489362
F0.09219858156028368
F0.09397163120567376
F0.09574468085106383
F0.09751773049645389
F0.09929078014184398
F0.10106382978723404
F0.10283687943262411
F0.10460992907801418
F0.10638297872340424
F0.10815602836879433
F0.10992907801418439
F0.11170212765957446
F0.11347517730496454
F0.1152482269503546
F0.11702127659574468
F0.11879432624113474
F0.12056737588652482
F0.12234042553191489
F0.12411347517730495
F0.12588652482269502
F0.1276595744680851
F0.12943262411347517
F0.13120567375886524
F0.13297872340425532
F0.1347517730496454
F0.13652482269503546
F0.13829787234042554
F0.14007092198581558
F0.14184397163120566
F0.14361702127659573
F0.14539007092198583
F0.14716312056737588
F0.14893617021276595
F0.15070921985815602
F0.15248226950354607
F0.15425531914893617
F0.15602836879432624
F0.1578014184397163
F0.15957446808510636
F0.16134751773049644
F0.16312056737588654
F0.16489361702127658
F0.16666666666666666
F0.16843971631205673
F0.1702127659574468
F0.17198581560283688
F0.17375886524822695
F0.175531914893617
F0.17730496453900707
F0.17907801418439717
F0.18085106382978725
F0.1826241134751773
F0.18439716312056736
F0.18617021276595744
F0.1879432624113475
F0.18971631205673758
F0.19148936170212766
F0.1932624113475177
F0.19503546099290778
F0.19680851063829788
F0.19858156028368795
F0.200354609929078
F0.20212765957446807
F0.20390070921985815
F0.20567375886524822
F0.2074468085106383
F0.20921985815602837
F0.2109929078014184
F0.21276595744680848
F0.21453900709219859
F0.21631205673758866
F0.2180851063829787
F0.21985815602836878
F0.22163120567375885
F0.22340425531914893
F0.225177304964539
F0.22695035460992907
F0.22872340425531915
F0.2304964539007092
F0.2322695035460993
F0.23404255319148937
F0.2358156028368794
F0.23758865248226949
F0.23936170212765956
F0.24113475177304963
F0.2429078014184397
F0.24468085106382978
F0.24645390070921985
F0.2482269503546099
F0.25
F0.25177304964539005
F0.25354609929078015
F0.2553191489361702
F0.25709219858156024
F0.25886524822695034
F0.26063829787234044
F0.2624113475177305
F0.26418439716312053
F0.26595744680851063
F0.26773049645390073
F0.2695035460992908
F0.2712765957446808
F0.2730496453900709
F0.274822695035461
F0.2765957446808511
F0.2783687943262411
F0.28014184397163117
F0.28191489361702127
F0.2836879432624113
F0.2854609929078014
F0.28723404255319146
F0.28900709219858156
F0.29078014184397166
F0.29255319148936165
F0.29432624113475175
F0.2960992907801418
F0.2978723404255319
F0.299645390070922
F0.30141843971631205
F0.30319148936170215
F0.30496453900709214
F0.30673758865248224
F0.30851063829787234
F0.3102836879432624
F0.3120567375886525
F0.31382978723404253
F0.3156028368794326
F0.3173758865248227
F0.3191489361702127
F0.32092198581560283
F0.3226950354609929
F0.324468085106383
F0.3262411347517731
F0.32801418439716307
F0.32978723404255317
F0.3315602836879432
F0.3333333333333333
F0.3351063829787234
F0.33687943262411346
F0.33865248226950356
F0.3404255319148936
F0.34219858156028365
F0.34397163120567376
F0.3457446808510638
F0.3475177304964539
F0.349290780141844
F0.351063829787234
F0.3528368794326241
F0.35460992907801414
F0.35638297872340424
F0.35815602836879434
F0.3599290780141844
F0.3617021276595745
F0.3634751773049645
F0.3652482269503546
F0.3670212765957447
F0.36879432624113473
F0.37056737588652483
F0.3723404255319149
F0.374113475177305
F0.375886524822695
F0.37765957446808507
F0.37943262411347517
F0.3812056737588652
F0.3829787234042553
F0.3847517730496454
F0.3865248226950354
F0.3882978723404255
F0.39007092198581556
F0.39184397163120566
F0.39361702127659576
F0.3953900709219858
F0.3971631205673759
F0.3989361702127659
F0.400709219858156
F0.4024822695035461
F0.40425531914893614
F0.40602836879432624
F0.4078014184397163
F0.4095744680851064
F0.41134751773049644
F0.4131205673758865
F0.4148936170212766
F0.41666666666666663
F0.41843971631205673
F0.42021276595744683
F0.4219858156028368
F0.4237588652482269
F0.42553191489361697
F0.42730496453900707
F0.42907801418439717
F0.4308510638297872
F0.4326241134751773
F0.4343971631205673
F0.4361702127659574
F0.4379432624113475
F0.43971631205673756
F0.44148936170212766
F0.4432624113475177
F0.4450354609929078
F0.44680851063829785
F0.4485815602836879
F0.450354609929078
F0.45212765957446804
F0.45390070921985815
F0.45567375886524825
F0.4574468085106383
F0.45921985815602834
F0.4609929078014184
F0.4627659574468085
F0.4645390070921986
F0.46631205673758863
F0.46808510638297873
F0.4698581560283687
F0.4716312056737588
F0.4734042553191489
F0.47517730496453897
F0.4769503546099291
F0.4787234042553191
F0.4804964539007092
F0.48226950354609927
F0.4840425531914893
F0.4858156028368794
F0.48758865248226946
F0.48936170212765956
F0.49113475177304966
F0.4929078014184397
F0.49468085106382975
F0.4964539007092198
F0.4982269503546099
F0.5
F0.50177304964539
F0.5035460992907801
F0.5053191489361701
F0.5070921985815603
F0.5088652482269503
F0.5106382978723404
F0.5124113475177304
F0.5141843971631205
F0.5159574468085106
F0.5177304964539007
F0.5195035460992907
F0.5212765957446809
F0.5230496453900708
F0.524822695035461
F0.526595744680851
F0.5283687943262411
F0.5301418439716312
F0.5319148936170213
F0.5336879432624113
F0.5354609929078015
F0.5372340425531914
F0.5390070921985816
F0.5407801418439716
F0.5425531914893617
F0.5443262411347518
F0.5460992907801419
F0.5478723404255319
F0.549645390070922
F0.551418439716312
F0.5531914893617021
F0.5549645390070922
F0.5567375886524822
F0.5585106382978723
F0.5602836879432623
F0.5620567375886525
F0.5638297872340425
F0.5656028368794326
F0.5673758865248226
F0.5691489361702128
F0.5709219858156028
F0.5726950354609929
F0.5744680851063829
F0.576241134751773
F0.5780141843971631
F0.5797872340425532
F0.5815602836879433
F0.5833333333333333
F0.5851063829787233
F0.5868794326241135
F0.5886524822695035
F0.5904255319148937
F0.5921985815602836
F0.5939716312056736
F0.5957446808510638
F0.5975177304964538
F0.599290780141844
F0.6010638297872339
F0.6028368794326241
F0.6046099290780141
F0.6063829787234043
F0.6081560283687943
F0.6099290780141843
F0.6117021276595744
F0.6134751773049645
F0.6152482269503546
F0.6170212765957447
F0.6187943262411346
F0.6205673758865248
F0.6223404255319148
F0.624113475177305
F0.625886524822695
F0.6276595744680851
F0.6294326241134751
F0.6312056737588652
F0.6329787234042553
F0.6347517730496454
F0.6365248226950354
F0.6382978723404255
F0.6400709219858156
F0.6418439716312057
F0.6436170212765957
F0.6453900709219857
F0.6471631205673758
F0.648936170212766
F0.650709219858156
F0.6524822695035462
F0.6542553191489361
F0.6560283687943261
F0.6578014184397163
F0.6595744680851063
F0.6613475177304965
F0.6631205673758864
F0.6648936170212766
F0.6666666666666666
F0.6684397163120567
F0.6702127659574468
F0.6719858156028368
F0.6737588652482269
F0.675531914893617
F0.6773049645390071
F0.6790780141843972
F0.6808510638297872
F0.6826241134751773
F0.6843971631205673
F0.6861702127659575
F0.6879432624113475
F0.6897163120567377
F0.6914893617021276
F0.6932624113475176
F0.6950354609929078
F0.6968085106382979
F0.698581560283688
F0.7003546099290779
F0.702127659574468
F0.7039007092198581
F0.7056737588652482
F0.7074468085106383
F0.7092198581560283
F0.7109929078014184
F0.7127659574468085
F0.7145390070921985
F0.7163120567375887
F0.7180851063829786
F0.7198581560283688
F0.7216312056737588
F0.723404255319149
F0.725177304964539
F0.726950354609929
F0.7287234042553191
F0.7304964539007092
F0.7322695035460993
F0.7340425531914894
F0.7358156028368794
F0.7375886524822695
F0.7393617021276595
F0.7411347517730497
F0.7429078014184397
F0.7446808510638298
F0.7464539007092198
F0.74822695035461
F0.75
F0.75177304964539
F0.7535460992907801
F0.7553191489361701
F0.7570921985815603
F0.7588652482269503
F0.7606382978723405
F0.7624113475177304
F0.7641843971631205
F0.7659574468085106
F0.7677304964539007
F0.7695035460992908
F0.7712765957446808
F0.7730496453900708
F0.774822695035461
F0.776595744680851
F0.7783687943262412
F0.7801418439716311
F0.7819148936170213
F0.7836879432624113
F0.7854609929078015
F0.7872340425531915
F0.7890070921985815
F0.7907801418439716
F0.7925531914893617
F0.7943262411347518
F0.7960992907801419
F0.7978723404255318
F0.799645390070922
F0.801418439716312
F0.8031914893617021
F0.8049645390070922
F0.8067375886524822
F0.8085106382978723
F0.8102836879432623
F0.8120567375886525
F0.8138297872340425
F0.8156028368794326
F0.8173758865248226
F0.8191489361702128
F0.8209219858156028
F0.8226950354609929
F0.8244680851063829
F0.826241134751773
F0.8280141843971631
F0.8297872340425532
F0.8315602836879433
F0.8333333333333333
F0.8351063829787233
F0.8368794326241135
F0.8386524822695035
F0.8404255319148937
F0.8421985815602836
F0.8439716312056736
F0.8457446808510638
F0.8475177304964538
F0.849290780141844
F0.8510638297872339
F0.8528368794326241
F0.8546099290780141
F0.8563829787234043
F0.8581560283687943
F0.8599290780141843
F0.8617021276595744
F0.8634751773049645
F0.8652482269503546
F0.8670212765957447
F0.8687943262411346
F0.8705673758865248
F0.8723404255319148
F0.874113475177305
F0.875886524822695
F0.8776595744680851
F0.8794326241134751
F0.8812056737588652
F0.8829787234042553
F0.8847517730496454
F0.8865248226950354
F0.8882978723404255
F0.8900709219858156
F0.8918439716312057
F0.8936170212765957
F0.8953900709219857
F0.8971631205673758
F0.898936170212766
F0.900709219858156
F0.9024822695035462
F0.9042553191489361
F0.9060283687943261
F0.9078014184397163
F0.9095744680851063
F0.9113475177304965
F0.9131205673758864
F0.9148936170212766
F0.9166666666666666
F0.9184397163120567
F0.9202127659574468
F0.9219858156028368
F0.9237588652482269
F0.925531914893617
F0.9273049645390071
F0.9290780141843972
F0.9308510638297871
F0.9326241134751773
F0.9343971631205673
F0.9361702127659575
F0.9379432624113475
F0.9397163120567374
F0.9414893617021276
F0.9432624113475176
F0.9450354609929078
F0.9468085106382979
F0.9485815602836879
F0.9503546099290779
F0.952127659574468
F0.9539007092198581
F0.9556737588652482
F0.9574468085106382
F0.9592198581560283
F0.9609929078014184
F0.9627659574468085
F0.9645390070921985
F0.9663120567375886
F0.9680851063829786
F0.9698581560283688
F0.9716312056737588
F0.973404255319149
F0.9751773049645389
F0.976950354609929
F0.9787234042553191
F0.9804964539007092
F0.9822695035460993
F0.9840425531914893
F0.9858156028368794
F0.9875886524822695
F0.9893617021276595
F0.9911347517730497
F0.9929078014184396
F0.9946808510638298
F0.9964539007092198
F0.99822695035461
F1.0
tp26
a(F0.0
F-0.0028139981063844714
F-1.2382737955667094
F1.138787424487015
F2.5749815524130932
F-3.6902758687194748
F-0.15641528473968058
F3.7935521046166927
F-2.392918640769097
F-2.707055640723894
F2.3551129366065195
F1.4255935369917991
F-3.9016485920056865
F3.6477582869863494
F0.2236107217721814
F-1.3594153978724506
F-1.4772386418825998
F3.959208759347992
F-3.8989899567041455
F-0.3074998298720717
F2.6566905557044325
F0.1622577127954678
F-0.018053740148953133
F-1.4339636797940618
F-1.6108757085985368
F1.226418765366001
F1.4686372415612285
F-5.813802709311854
F3.807350883197355
F0.20370279366986918
F1.4009877837743074
F-2.9470218768863625
F-0.36967184759547783
F1.330852500115884
F3.089462467791244
F-4.367584591369154
F2.5227339323565614
F0.23636025434421823
F-0.08961911010801198
F-1.6386138676729642
F-3.4678457699269933
F5.837641841441503
F-2.5968401663464333
F-0.474181423672942
F-3.409861579539612
F4.304543460834977
F-1.2177928837587577
F-0.3402413491801693
F-5.164547720585111
F9.117450718376542
F-5.547114107990234
F-1.0270867565852977
F-0.2774566129305426
F6.613588976251176
F-7.734682029160152
F0.28703856101920316
F1.714859023637402
F0.021793836580548023
F-0.2091367717307294
F1.5723540610851492
F-3.4938956034013318
F-0.8030889709602209
F-0.3006421020031617
F-0.30013558147356334
F3.375380037130836
F-3.34621898679599
F1.0041556998181806
F0.02477857255010508
F-0.2581354723391629
F-4.077355623896307
F2.81360442600029
F-3.51241749533598
F8.61803587736389
F-6.231747985273198
F-1.6915120168469995
F-0.3685888461201603
F-0.3691087584482737
F1.5750430000599607
F-1.9526420022120423
F5.321307888432603
F-1.1006963129420302
F-8.774106320939039
F3.9831002532924242
F-1.2038463546048792
F1.2571313820854144
F0.051900474949406944
F3.870438884512641
F-7.867513009745218
F6.330444711371344
F-4.9118606294508735
F-4.00286545715705
F9.845982789138073
F-8.68620392370795
F3.630304840844253
F-3.3154370710652254
F-5.955638265009085
F9.582954889248152
F-6.809320352320679
F8.747447359445559
F-6.7315283640319805
F-4.977737131689401
F1.1729736306904517
F4.628817292730716
F-3.9498369928448165
F0.6630423245589295
F2.455766613082255
F-4.559006726052735
F3.0180831125546903
F0.8016181913259551
F-10.135395024047046
F1.576224647869656
F8.045915921430304
F-5.848083136944338
F-2.5952770234823705
F4.361637429205141
F0.8867044746739304
F-5.473441689246318
F-2.1170159170148612
F1.8975281039436784
F-7.610797645627917
F9.845655394402149
F-1.8566244062676063
F-2.1256348444600914
F7.331605987370629
F-5.930019037665333
F-2.9845995848328353
F-3.317715445102719
F3.8221234653512535
F-1.5949160765756087
F-4.226337829154292
F3.849792860554764
F-1.581881195734345
F-9.928097669123996
F4.65545048559753
F-3.599979887257943
F5.600910751203164
F2.3214427622818654
F-0.6573008755473407
F-12.037846627695414
F6.389180188600406
F9.25568666208138
F1.6520355515784102
F-3.266410119156184
F-10.483993468861787
F1.8972173226462092
F4.511191233357923
F-14.604089408581428
F5.48549853347816
F3.7557909967135616
F-0.6703583972319753
F-0.686950802823067
F-6.908278415201132
F5.951552900463581
F-9.482400507067755
F0.24435821353831103
F-1.6005999000824798
F0.9088974039402292
F3.5382900756938334
F-2.634374363698706
F0.9826469663888119
F-9.299728849935306
F4.6156062580386985
F-0.02848305687603035
F-2.360308963708856
F5.731761532577513
F2.1674902686013002
F-10.830663013786486
F1.27474127469865
F-4.724512043150793
F6.102038738860289
F3.830076229924706
F-11.015029700124659
F0.9483950739381652
F2.3358635245264288
F-4.458341880429722
F4.4142929475919725
F6.197870266417691
F-9.791725483034437
F-2.5462739836412465
F-2.8584085121558807
F8.14827855577732
F0.9864014732053655
F-2.548507536553612
F3.0219984718852766
F4.846017259079885
F-2.2462694551699647
F5.178445889213751
F3.639897536736955
F-0.29905647972047633
F3.713949867748831
F-9.603017077129115
F1.120795159940387
F11.88671428015298
F-7.43525227257723
F12.852684516860025
F-8.211569269886846
F4.913120205194744
F-3.0037531481925606
F-2.738862847638253
F18.803437082321448
F5.49102945121927
F-1.153603971370548
F-15.329913944322994
F6.926705880082112
F5.844132829952159
F-1.3290020881989828
F0.5528348754846978
F0.5306435966396952
F0.75872419840565
F9.645252898635757
F1.898411897245205
F-6.104968350108405
F2.668810879248176
F-0.667679307027733
F6.916140369355062
F-1.7655239016160014
F-9.167559880232066
F1.7690101833974685
F4.099013649617064
F5.867745129918453
F3.947324385891687
F1.0672210904454074
F-7.559221638887287
F-0.8019280438935513
F13.266047574998469
F-0.8092914251249571
F-0.672110696881502
F-10.419833125905487
F-3.6745241023325845
F4.607959404396281
F-9.056323993619097
F17.825542557926465
F-10.219308636150721
F-5.804775896383198
F6.553081981035739
F7.162945823365912
F-1.673462931956629
F-6.322190610831198
F-13.816207386250774
F3.7281053432950366
F2.0345751960415717
F2.903339603399681
F13.66462438511191
F-20.740188306613437
F6.038265835409242
F26.34314315571955
F-25.937017120025978
F-14.086228315335182
F14.121075899544401
F10.10861925737813
F-10.865276544331167
F14.144984008995834
F1.7981564836512776
F-22.41939757888107
F6.519972211855952
F9.87712546650032
F-21.29200361425904
F-2.510797748976251
F15.020872473446511
F5.966068384501037
F-17.192070567945308
F-2.711852290618845
F3.9066592526098667
F1.345429203575836
F-0.9545783117264205
F-10.158972685727978
F5.535977057502782
F-11.976022657139437
F6.7280158254286535
F9.988644871598707
F-16.72175453582581
F0.026042268754308148
F11.32862189295471
F-12.299069179221517
F0.24797690204027467
F23.320479719261456
F-5.501777556870169
F0.24712090667286765
F-5.741422428735652
F6.096392725826482
F12.942083612417818
F-24.181220315795905
F-0.40114568486197516
F12.853985438848476
F6.530330039891177
F0.9589429526674816
F0.34891722970657035
F-5.612206646094636
F6.110506564544385
F8.50734573038001
F-19.473546994659316
F-0.18749330004536768
F7.385484201621305
F0.3215534632236914
F0.43698239786661536
F7.302881233155636
F-5.078837718802444
F-14.681819888456356
F6.837154440793732
F14.87042573880248
F-11.592316093345666
F10.56155152615068
F26.87394146994267
F-27.799548146766178
F-15.771444486081755
F27.68686203614377
F7.059450966162872
F-4.89280140637209
F14.703457753236902
F-10.400994676324581
F4.5918491101980266
F-9.241570869680892
F10.294157054250597
F8.545926047309814
F3.4981174217077875
F7.21910704640821
F-1.0286614123892508
F-19.47452216183943
F3.6080853403886732
F20.79790707532811
F4.726826736898126
F-17.90125681689289
F19.3077048793263
F-28.33365213405077
F23.70190500459513
F18.697933887963462
F-11.026602179733509
F-18.16597482719218
F-10.659814878197341
F28.83913758952438
F-27.29505559795722
F5.703305921597706
F31.22501401488964
F-2.040823417721497
F-28.616960890974777
F-2.5245066925378965
F-2.2010786148823214
F0.26150703144127585
F37.26730001910891
F2.2363090367676155
F-37.76603790677932
F-28.81284552867133
F41.756285947419116
F-3.0222820482037065
F5.935996830839812
F-27.69778788080169
F6.875261739331626
F28.940634871183672
F-46.54046376477669
F11.263562429606642
F41.35799581858026
F-6.433478379112792
F-20.766479929312254
F-13.237477248649355
F0.382753821892616
F0.3581043206615821
F-16.371128853845367
F12.885799504574676
F66.03770826795655
F-38.50683935994656
F-35.51115955756174
F23.79082849692659
F-0.9674158568798737
F-13.496987329358667
F23.42207585010954
F-6.597550078718318
F0.2406718788165879
F-23.705374943882735
F25.311408224052908
F8.756175373781348
F10.470430276974753
F18.034362087078787
F-41.35999672698392
F44.932849515935544
F-6.671591250202047
F19.358853064605075
F11.743747860024058
F-5.555788180428758
F-44.41238525825935
F28.765708434431186
F21.931134998108593
F11.754854866054503
F21.442003299556035
F-23.393540372584628
F-37.617267188463096
F13.472436063805008
F-39.71643959032517
F31.828214673969097
F-9.443400808559252
F3.1133283961566214
F-21.93541384300469
F15.214896673559373
F-53.99941792934236
F20.843280514839165
F-9.428447597958929
F5.6443661918710815
F57.82574897080989
F-59.01508727532129
F-63.51098074980927
F76.58400489968726
F4.926768374123075
F-47.35531603614309
F17.864520920449753
F19.33948763241924
F-54.431876138952894
F57.20831444354221
F15.856002206971343
F-14.916122555055155
F6.155472932472008
F-41.377913453003956
F15.273615765577023
F-7.45784639118105
F52.22119699028131
F-17.431496599797192
F-24.960196743720402
F42.327505946587216
F-90.07307155862097
F53.984928715704655
F9.690225306591417
F9.038707567336502
F-37.545432329133234
F47.588212479713434
F-28.655472800498334
F-10.194458534225824
F9.776322040826251
F70.41404197083791
F-110.15854062700554
F101.71610919253051
F-70.55312522092315
F-12.313382657045873
F23.18149271820982
F-79.85331347378519
F132.13075665783416
F-89.79070581673453
F33.093000179140844
F-9.762968921722605
F-15.83062485930523
F58.63484056648547
F-44.25614178848237
F4.7399318916362185
F91.34850647160444
F-146.63148553432032
F86.34940968122783
F-63.017516000201375
F35.755430199027685
F9.858516501737405
F17.511988591312335
F-65.49114086623786
F47.204344306535134
F38.72374918322602
F-18.401271638076
F-48.791744799260655
F79.77130380952923
F-131.7464323346548
F121.26299664818518
F-8.760302991918858
F-30.52109957591842
F11.582062865387291
F-86.76735267578198
F139.6700584909235
F-98.36213107482799
F110.78960072700207
F-66.05668391446173
F80.391448998736
F-41.867118226480905
F-18.295530356573867
F-63.60716353600685
F121.69805707647932
F-82.69710663229756
F57.62202970027416
F41.74103168211298
F-56.105874989182176
F-9.299832325716125
F163.76147781401838
F-176.6111480746005
F102.4430108419808
F14.32520439084356
F17.582619193352954
F-186.56156447920506
F132.2376075314739
F130.42021558710707
F-212.16833560543478
F0.04873786587561573
F37.943850334187466
F178.26309711844138
F-256.4338232614572
F122.1862258809789
F32.441245311819756
F-152.66495773737432
F116.45997168360793
F-15.945710228270565
F-99.85068559566744
F119.64462540106008
F-6.543799246828186
F-50.07253794521496
F62.45269065427834
F-6.092811420643228
F-70.43806221951576
F-28.16187694903789
F249.7740365404058
F-93.55765580373019
F-216.04207577149643
F295.18433830506956
F-237.60496050936575
F178.70689849338098
F-177.65390484135798
F209.05778268224392
F-11.2351125374118
F-129.41717740559437
F40.45784345070974
F-240.47770657161354
F402.6027295508252
F-273.11895620444517
F147.16368879924124
F-18.88717317157484
F-204.90672893616363
F221.39332711100744
F-75.93537474959368
F-7.114915381705093
F-71.98669462331898
F78.1725952095583
F0.45120679043922574
F14.984506053096977
F138.46212025316225
F-315.76366983843303
F164.14670268519043
F0.455706346241763
F-13.159464531791357
F-160.91032347671123
F190.94974496907446
F222.53863580970136
F-590.5381207583879
F437.19437488239134
F-88.15037341394414
F12.73735047233726
F175.3903461355057
F-181.544812528366
F0.46627639343472965
F0.4672852189868627
F-10.83670939148295
F-179.84531754531835
F291.4072107151158
F-1.1326057457961294
F-101.63794263104319
F-93.55908471343191
F195.78201508813316
F-201.73230100647748
F102.83223584725543
F0.4441868652766699
F4.417962550254861
F102.15684369735035
F-209.2530350627077
F212.30579935379257
F-218.9414717619125
F6.937940832094941
F439.7968713590356
F-561.8191517512886
F115.45306376393236
F223.66801762852575
F-344.1554811164564
F468.66683923012897
F-233.38319250185492
F-3.837468205763155
F-367.01024157104644
F362.09426574291416
tp27
abag0
(g7
g2
Ntp28
Rp29
(lp30
F100.0
aF20.0
a(ta(F0.0
F0.0017730496453900709
F0.0035460992907801418
F0.005319148936170213
F0.0070921985815602835
F0.008865248226950354
F0.010638297872340425
F0.012411347517730497
F0.014184397163120567
F0.015957446808510637
F0.017730496453900707
F0.01950354609929078
F0.02127659574468085
F0.02304964539007092
F0.024822695035460994
F0.02659574468085106
F0.028368794326241134
F0.030141843971631204
F0.031914893617021274
F0.03368794326241135
F0.035460992907801414
F0.03723404255319149
F0.03900709219858156
F0.040780141843971635
F0.0425531914893617
F0.04432624113475177
F0.04609929078014184
F0.047872340425531915
F0.04964539007092199
F0.051418439716312055
F0.05319148936170212
F0.054964539007092195
F0.05673758865248227
F0.05851063829787234
F0.06028368794326241
F0.062056737588652475
F0.06382978723404255
F0.06560283687943262
F0.0673758865248227
F0.06914893617021277
F0.07092198581560283
F0.07269503546099292
F0.07446808510638298
F0.07624113475177303
F0.07801418439716312
F0.07978723404255318
F0.08156028368794327
F0.08333333333333333
F0.0851063829787234
F0.08687943262411348
F0.08865248226950354
F0.09042553191489362
F0.09219858156028368
F0.09397163120567376
F0.09574468085106383
F0.09751773049645389
F0.09929078014184398
F0.10106382978723404
F0.10283687943262411
F0.10460992907801418
F0.10638297872340424
F0.10815602836879433
F0.10992907801418439
F0.11170212765957446
F0.11347517730496454
F0.1152482269503546
F0.11702127659574468
F0.11879432624113474
F0.12056737588652482
F0.12234042553191489
F0.12411347517730495
F0.12588652482269502
F0.1276595744680851
F0.12943262411347517
F0.13120567375886524
F0.13297872340425532
F0.1347517730496454
F0.13652482269503546
F0.13829787234042554
F0.14007092198581558
F0.14184397163120566
F0.14361702127659573
F0.14539007092198583
F0.14716312056737588
F0.14893617021276595
F0.15070921985815602
F0.15248226950354607
F0.15425531914893617
F0.15602836879432624
F0.1578014184397163
F0.15957446808510636
F0.16134751773049644
F0.16312056737588654
F0.16489361702127658
F0.16666666666666666
F0.16843971631205673
F0.1702127659574468
F0.17198581560283688
F0.17375886524822695
F0.175531914893617
F0.17730496453900707
F0.17907801418439717
F0.18085106382978725
F0.1826241134751773
F0.18439716312056736
F0.18617021276595744
F0.1879432624113475
F0.18971631205673758
F0.19148936170212766
F0.1932624113475177
F0.19503546099290778
F0.19680851063829788
F0.19858156028368795
F0.200354609929078
F0.20212765957446807
F0.20390070921985815
F0.20567375886524822
F0.2074468085106383
F0.20921985815602837
F0.2109929078014184
F0.21276595744680848
F0.21453900709219859
F0.21631205673758866
F0.2180851063829787
F0.21985815602836878
F0.22163120567375885
F0.22340425531914893
F0.225177304964539
F0.22695035460992907
F0.22872340425531915
F0.2304964539007092
F0.2322695035460993
F0.23404255319148937
F0.2358156028368794
F0.23758865248226949
F0.23936170212765956
F0.24113475177304963
F0.2429078014184397
F0.24468085106382978
F0.24645390070921985
F0.2482269503546099
F0.25
F0.25177304964539005
F0.25354609929078015
F0.2553191489361702
F0.25709219858156024
F0.25886524822695034
F0.26063829787234044
F0.2624113475177305
F0.26418439716312053
F0.26595744680851063
F0.26773049645390073
F0.2695035460992908
F0.2712765957446808
F0.2730496453900709
F0.274822695035461
F0.2765957446808511
F0.2783687943262411
F0.28014184397163117
F0.28191489361702127
F0.2836879432624113
F0.2854609929078014
F0.28723404255319146
F0.28900709219858156
F0.29078014184397166
F0.29255319148936165
F0.29432624113475175
F0.2960992907801418
F0.2978723404255319
F0.299645390070922
F0.30141843971631205
F0.30319148936170215
F0.30496453900709214
F0.30673758865248224
F0.30851063829787234
F0.3102836879432624
F0.3120567375886525
F0.31382978723404253
F0.3156028368794326
F0.3173758865248227
F0.3191489361702127
F0.32092198581560283
F0.3226950354609929
F0.324468085106383
F0.3262411347517731
F0.32801418439716307
F0.32978723404255317
F0.3315602836879432
F0.3333333333333333
F0.3351063829787234
F0.33687943262411346
F0.33865248226950356
F0.3404255319148936
F0.34219858156028365
F0.34397163120567376
F0.3457446808510638
F0.3475177304964539
F0.349290780141844
F0.351063829787234
F0.3528368794326241
F0.35460992907801414
F0.35638297872340424
F0.35815602836879434
F0.3599290780141844
F0.3617021276595745
F0.3634751773049645
F0.3652482269503546
F0.3670212765957447
F0.36879432624113473
F0.37056737588652483
F0.3723404255319149
F0.374113475177305
F0.375886524822695
F0.37765957446808507
F0.37943262411347517
F0.3812056737588652
F0.3829787234042553
F0.3847517730496454
F0.3865248226950354
F0.3882978723404255
F0.39007092198581556
F0.39184397163120566
F0.39361702127659576
F0.3953900709219858
F0.3971631205673759
F0.3989361702127659
F0.400709219858156
F0.4024822695035461
F0.40425531914893614
F0.40602836879432624
F0.4078014184397163
F0.4095744680851064
F0.41134751773049644
F0.4131205673758865
F0.4148936170212766
F0.41666666666666663
F0.41843971631205673
F0.42021276595744683
F0.4219858156028368
F0.4237588652482269
F0.42553191489361697
F0.42730496453900707
F0.42907801418439717
F0.4308510638297872
F0.4326241134751773
F0.4343971631205673
F0.4361702127659574
F0.4379432624113475
F0.43971631205673756
F0.44148936170212766
F0.4432624113475177
F0.4450354609929078
F0.44680851063829785
F0.4485815602836879
F0.450354609929078
F0.45212765957446804
F0.45390070921985815
F0.45567375886524825
F0.4574468085106383
F0.45921985815602834
F0.4609929078014184
F0.4627659574468085
F0.4645390070921986
F0.46631205673758863
F0.46808510638297873
F0.4698581560283687
F0.4716312056737588
F0.4734042553191489
F0.47517730496453897
F0.4769503546099291
F0.4787234042553191
F0.4804964539007092
F0.48226950354609927
F0.4840425531914893
F0.4858156028368794
F0.48758865248226946
F0.48936170212765956
F0.49113475177304966
F0.4929078014184397
F0.49468085106382975
F0.4964539007092198
F0.4982269503546099
F0.5
F0.50177304964539
F0.5035460992907801
F0.5053191489361701
F0.5070921985815603
F0.5088652482269503
F0.5106382978723404
F0.5124113475177304
F0.5141843971631205
F0.5159574468085106
F0.5177304964539007
F0.5195035460992907
F0.5212765957446809
F0.5230496453900708
F0.524822695035461
F0.526595744680851
F0.5283687943262411
F0.5301418439716312
F0.5319148936170213
F0.5336879432624113
F0.5354609929078015
F0.5372340425531914
F0.5390070921985816
F0.5407801418439716
F0.5425531914893617
F0.5443262411347518
F0.5460992907801419
F0.5478723404255319
F0.549645390070922
F0.551418439716312
F0.5531914893617021
F0.5549645390070922
F0.5567375886524822
F0.5585106382978723
F0.5602836879432623
F0.5620567375886525
F0.5638297872340425
F0.5656028368794326
F0.5673758865248226
F0.5691489361702128
F0.5709219858156028
F0.5726950354609929
F0.5744680851063829
F0.576241134751773
F0.5780141843971631
F0.5797872340425532
F0.5815602836879433
F0.5833333333333333
F0.5851063829787233
F0.5868794326241135
F0.5886524822695035
F0.5904255319148937
F0.5921985815602836
F0.5939716312056736
F0.5957446808510638
F0.5975177304964538
F0.599290780141844
F0.6010638297872339
F0.6028368794326241
F0.6046099290780141
F0.6063829787234043
F0.6081560283687943
F0.6099290780141843
F0.6117021276595744
F0.6134751773049645
F0.6152482269503546
F0.6170212765957447
F0.6187943262411346
F0.6205673758865248
F0.6223404255319148
F0.624113475177305
F0.625886524822695
F0.6276595744680851
F0.6294326241134751
F0.6312056737588652
F0.6329787234042553
F0.6347517730496454
F0.6365248226950354
F0.6382978723404255
F0.6400709219858156
F0.6418439716312057
F0.6436170212765957
F0.6453900709219857
F0.6471631205673758
F0.648936170212766
F0.650709219858156
F0.6524822695035462
F0.6542553191489361
F0.6560283687943261
F0.6578014184397163
F0.6595744680851063
F0.6613475177304965
F0.6631205673758864
F0.6648936170212766
F0.6666666666666666
F0.6684397163120567
F0.6702127659574468
F0.6719858156028368
F0.6737588652482269
F0.675531914893617
F0.6773049645390071
F0.6790780141843972
F0.6808510638297872
F0.6826241134751773
F0.6843971631205673
F0.6861702127659575
F0.6879432624113475
F0.6897163120567377
F0.6914893617021276
F0.6932624113475176
F0.6950354609929078
F0.6968085106382979
F0.698581560283688
F0.7003546099290779
F0.702127659574468
F0.7039007092198581
F0.7056737588652482
F0.7074468085106383
F0.7092198581560283
F0.7109929078014184
F0.7127659574468085
F0.7145390070921985
F0.7163120567375887
F0.7180851063829786
F0.7198581560283688
F0.7216312056737588
F0.723404255319149
F0.725177304964539
F0.726950354609929
F0.7287234042553191
F0.7304964539007092
F0.7322695035460993
F0.7340425531914894
F0.7358156028368794
F0.7375886524822695
F0.7393617021276595
F0.7411347517730497
F0.7429078014184397
F0.7446808510638298
F0.7464539007092198
F0.74822695035461
F0.75
F0.75177304964539
F0.7535460992907801
F0.7553191489361701
F0.7570921985815603
F0.7588652482269503
F0.7606382978723405
F0.7624113475177304
F0.7641843971631205
F0.7659574468085106
F0.7677304964539007
F0.7695035460992908
F0.7712765957446808
F0.7730496453900708
F0.774822695035461
F0.776595744680851
F0.7783687943262412
F0.7801418439716311
F0.7819148936170213
F0.7836879432624113
F0.7854609929078015
F0.7872340425531915
F0.7890070921985815
F0.7907801418439716
F0.7925531914893617
F0.7943262411347518
F0.7960992907801419
F0.7978723404255318
F0.799645390070922
F0.801418439716312
F0.8031914893617021
F0.8049645390070922
F0.8067375886524822
F0.8085106382978723
F0.8102836879432623
F0.8120567375886525
F0.8138297872340425
F0.8156028368794326
F0.8173758865248226
F0.8191489361702128
F0.8209219858156028
F0.8226950354609929
F0.8244680851063829
F0.826241134751773
F0.8280141843971631
F0.8297872340425532
F0.8315602836879433
F0.8333333333333333
F0.8351063829787233
F0.8368794326241135
F0.8386524822695035
F0.8404255319148937
F0.8421985815602836
F0.8439716312056736
F0.8457446808510638
F0.8475177304964538
F0.849290780141844
F0.8510638297872339
F0.8528368794326241
F0.8546099290780141
F0.8563829787234043
F0.8581560283687943
F0.8599290780141843
F0.8617021276595744
F0.8634751773049645
F0.8652482269503546
F0.8670212765957447
F0.8687943262411346
F0.8705673758865248
F0.8723404255319148
F0.874113475177305
F0.875886524822695
F0.8776595744680851
F0.8794326241134751
F0.8812056737588652
F0.8829787234042553
F0.8847517730496454
F0.8865248226950354
F0.8882978723404255
F0.8900709219858156
F0.8918439716312057
F0.8936170212765957
F0.8953900709219857
F0.8971631205673758
F0.898936170212766
F0.900709219858156
F0.9024822695035462
F0.9042553191489361
F0.9060283687943261
F0.9078014184397163
F0.9095744680851063
F0.9113475177304965
F0.9131205673758864
F0.9148936170212766
F0.9166666666666666
F0.9184397163120567
F0.9202127659574468
F0.9219858156028368
F0.9237588652482269
F0.925531914893617
F0.9273049645390071
F0.9290780141843972
F0.9308510638297871
F0.9326241134751773
F0.9343971631205673
F0.9361702127659575
F0.9379432624113475
F0.9397163120567374
F0.9414893617021276
F0.9432624113475176
F0.9450354609929078
F0.9468085106382979
F0.9485815602836879
F0.9503546099290779
F0.952127659574468
F0.9539007092198581
F0.9556737588652482
F0.9574468085106382
F0.9592198581560283
F0.9609929078014184
F0.9627659574468085
F0.9645390070921985
F0.9663120567375886
F0.9680851063829786
F0.9698581560283688
F0.9716312056737588
F0.973404255319149
F0.9751773049645389
F0.976950354609929
F0.9787234042553191
F0.9804964539007092
F0.9822695035460993
F0.9840425531914893
F0.9858156028368794
F0.9875886524822695
F0.9893617021276595
F0.9911347517730497
F0.9929078014184396
F0.9946808510638298
F0.9964539007092198
F0.99822695035461
F1.0
tp31
a(F0.0
F-1.251307591706972
F2.4287378804047615
F-2.379054275932861
F-0.13810413850509667
F-0.04611774739458823
F2.5354206444643568
F0.12143396658369918
F-2.5511916792452767
F-0.11872680719493395
F3.8709196005320883
F-2.3795597045603154
F-1.4200013201559734
F-1.4828792269797113
F2.568843781521091
F4.189331264749892
F-5.094728487611628
F1.0455719883669483
F1.4644151787221886
F-2.6457450687092345
F2.5754316316673624
F-3.9939632641432508
F3.8954066048880556
F-1.0896023216473694
F1.3497825634071432
F-4.198068659019424
F3.9936593025429836
F-2.579207587916346
F4.198579736911857
F-5.5104044364477645
F6.9089288558594
F-6.777141658119889
F0.8640512270189731
F3.0845743418445513
F0.3343529207974225
F-3.0184663077933114
F-1.836092045324219
F5.967714647128677
F-4.017372626643469
F1.1060478354700125
F1.757228417858295
F-4.570068724899991
F5.844293962441303
F-4.058073274084271
F4.339583205868984
F-2.627098714786128
F-3.6392595232301828
F6.184078273288819
F-2.4659723406293996
F-0.3582176955588207
F-1.6797370714782487
F3.158719535666055
F-2.9091425069203227
F-0.47316037842588843
F3.403582510254729
F0.5386946286593493
F-5.1850980621055225
F4.512716758086541
F-1.004489430875053
F-0.20680519332260608
F-1.7761361870526085
F1.5095798734451744
F-1.5434851414235864
F3.358871901499332
F-1.2090951119249764
F1.6140187618825002
F-3.3775301710042447
F6.956468548843995
F-10.029465794219092
F1.8948691365412547
F2.458945306892685
F4.185424149775918
F-4.991606170249682
F0.9295955402673994
F2.325168336586106
F0.44100654053271776
F-3.837582088531026
F1.2141727643947928
F0.4071896340182243
F-4.024357017286809
F5.257471615204791
F-0.8148600818831939
F3.7666758574961667
F-5.213373357171564
F-1.2576754479487526
F4.163669946943081
F-3.292897703195236
F-0.8898610459116353
F4.242617011673142
F-5.424104859877547
F0.6054635218716061
F4.7838695957789925
F-1.1132984879456398
F-0.44058831682917154
F0.04058365926418522
F0.041233946653288625
F-2.2044073138723577
F3.974145339420232
F-1.133076047742107
F1.822563461354046
F-3.9439880675430454
F1.211846944273723
F0.5802206422647506
F2.3962484170032257
F-6.324744678697405
F2.7774032635208274
F3.647258352873179
F0.7606192066056217
F-7.126713050041109
F5.328294473017549
F4.472509674895761
F-8.987416348196664
F2.266318234403489
F1.3429124877521987
F0.05465399737728643
F2.5684073944804777
F-1.6648604822168607
F-3.199336184126453
F1.8041113940226787
F0.7771292951450988
F-2.532371200637153
F6.9966614161338345
F-7.868506008913327
F4.62784472024243
F-0.1329909198181531
F-0.7226845721688756
F2.747778619025407
F-7.110820468283387
F8.231556009067852
F0.9338234789729495
F-6.15976619710983
F-1.8017242179605268
F11.10751417471711
F-7.18997499101733
F-6.486292757163566
F4.516944048683391
F7.6734079294935915
F-12.038262130993568
F9.105012818095327
F-0.41000303491702356
F0.9670650821061807
F-7.5781663084315944
F5.582574280438859
F0.362706590592836
F-0.9666798359872278
F-2.928962823939162
F1.8888087656659516
F-1.8594380850013206
F4.92266477363865
F2.5168512187170937
F-2.8576819028457403
F2.005667754366367
F-4.7789254685482945
F-2.5009151502202336
F9.43147079794591
F-2.2409457777928585
F3.952331706150344
F-12.966871563972084
F2.6342042251616036
F4.132405779919173
F3.3871945324116273
F-4.999269024183854
F7.161732257112249
F-2.099752460452655
F-9.399570599024834
F10.423909025480773
F-3.975761309647273
F-1.0078980989488222
F4.9886655836289275
F1.8199031741963996
F-10.082388943634676
F12.35892191939827
F1.7163799562365014
F-17.068856041421043
F10.831094461784184
F-1.9841083308955785
F2.1343220364288134
F0.020629431506291405
F2.066024263066149
F-5.252174537977496
F0.127300698356209
F1.8926920675052332
F-7.310853340484516
F11.147505735906162
F-3.527513157564713
F-5.578656921760874
F15.121861846552848
F-10.750947353463134
F-6.0394513382229835
F9.589902077572782
F4.3211378071930024
F-3.5399269445619885
F-1.9009892649230289
F-3.814689792489667
F1.8430635620322393
F2.2556517508512077
F-3.8736727747970137
F9.922404856176811
F-9.113917436120348
F3.084338028132784
F7.105891889558769
F-20.027447375322254
F12.241209731845279
F6.477927698305995
F-8.756344367441526
F1.702964127549056
F2.622100886318932
F8.67228360225481
F-15.67525654551206
F-0.4524031963780894
F16.623417907288957
F-7.23558776220551
F-7.966007235501664
F13.118538375207327
F-8.861218075750712
F6.468159388411444
F-1.6670966547922341
F0.535015077885748
F-2.8316276293328486
F-5.940090334963014
F4.510377425891937
F3.153801750414144
F9.387321453479926
F-16.295347314044296
F7.165123868502631
F16.487285793596598
F-18.29441656444078
F-8.131941382704227
F7.735661983569752
F8.312211990160185
F-1.0319244749158003
F1.702875535581958
F-15.550041133179567
F0.27686138500016344
F15.540588538039938
F4.0254858892636785
F-4.456895265297791
F-8.309208146102126
F11.156973936479558
F7.013335879661536
F-13.336926634350446
F-2.5840658024269296
F-6.195107749767306
F12.518723979270368
F0.952987435174156
F-6.743156438768449
F4.248328068927763
F-4.968837552057422
F6.280594987861215
F8.95883373572286
F-26.14139487259805
F15.194721368812687
F20.650727266824948
F-29.806398588309623
F14.222210939470981
F6.27135809861322
F-18.144015390728093
F-0.10678740608117333
F22.014621014147835
F-7.825897256816752
F-18.39256393986563
F21.52792365477256
F-1.3576024796948905
F-20.56462684474078
F11.702605529005714
F-1.4678020383658124
F-4.2010193937144695
F16.341817138173187
F-11.538466583498423
F-10.488354135168445
F22.774668001691467
F-12.070093945854964
F-10.5519581700746
F10.899017469047877
F0.3384652177139845
F-6.066227110513654
F12.087468986978761
F-12.05254406068841
F-18.38838098480396
F5.477236530351997
F17.721592581996095
F6.828796613533243
F-31.440182131857444
F5.229207956285931
F37.5871435430242
F8.09764823830913
F-31.75995799208732
F11.861461097497545
F8.468353814646823
F-13.857464767340542
F7.054757847766688
F-19.11009677761371
F4.143419094908752
F22.144721209712074
F-6.7451113372111
F6.897618355621709
F-5.261102661773029
F-1.5183035672010181
F2.3354943136413397
F-35.38733698521111
F2.523659625263298
F30.948840022106534
F-6.475393649531844
F-8.101974659578637
F13.4937422727024
F-10.691997024341989
F-19.8975168261599
F9.238955318719775
F-2.1498168756456133
F-5.911843340199827
F-18.198997672106085
F-1.4319714551901506
F19.712723489133534
F12.360062749998143
F-25.720096102117523
F3.8755892010841486
F32.41274453271822
F4.349103649011369
F-18.757842667429532
F-0.32344661093710486
F-0.3746503292405081
F-7.826141926551078
F-10.532823606490483
F-1.0189071966204362
F6.081923128751409
F9.732272003240046
F-15.64351795677835
F8.521882693055394
F19.097501112152123
F-17.106791179041224
F28.862483670600483
F-11.40925811534907
F-10.431759994995558
F33.57812160929358
F-14.58007615295808
F-15.317436304926996
F-11.910493425742075
F-20.427167962396606
F30.440638779261413
F-19.9648651437717
F-17.867966663403255
F39.83796266791695
F3.3972668733584377
F9.253627608513709
F-17.285066840366227
F20.748692716051888
F5.387513462549385
F-4.494764570673406
F5.658562927372396
F-29.460510756828484
F-2.8301441479735456
F15.855360782846152
F-25.01254765544527
F35.67661018676617
F-2.007976851008152
F-20.17240999348667
F14.262863584733077
F-8.418069520673464
F-15.018406035154992
F25.29874823639798
F36.92530707815091
F-39.72208762998478
F-29.15701802491747
F21.87022875390301
F1.101272256513972
F6.581676704081221
F-32.085046207288144
F14.683204731891259
F10.368387231346421
F30.993061698598922
F-74.58323585563436
F49.96645811158706
F-8.634009911548755
F-17.906463991697805
F17.063183423436584
F0.06395034515849281
F-46.1242713731815
F53.38881392526568
F-26.711349979959873
F-57.13518194868809
F41.97754248955844
F57.95085965604942
F-85.1597718483741
F-12.70020848552962
F26.124562938043063
F9.14120106255613
F-12.368412924585602
F28.083439856541133
F10.381346035765928
F-2.3282269646498523
F22.999355064039836
F-23.50935245571379
F33.08016185775662
F-20.927974928798722
F9.340562671823212
F13.2257610651937
F-41.00381811889472
F-7.580035488874517
F52.97010739095162
F-54.708558360650365
F102.65917509456366
F-1.6722532457412247
F-79.28473525678966
F-24.660862894849437
F17.92822844962151
F49.1027598472447
F-18.01361289438166
F-30.470296644261914
F59.95323577477209
F-21.276630638760892
F-90.2352997284434
F102.66741747245082
F-44.9258086001212
F-61.526600424067134
F168.57925899748176
F-114.18333930338228
F25.02106286221673
F-43.75281883537862
F82.08276141257845
F-64.41273908640633
F47.37923401063467
F-47.8641302609559
F-49.61127136461584
F66.46822900291784
F111.39936158700952
F-97.88449399865237
F-122.40286703336261
F223.66592291154498
F-152.29148527895532
F8.55745636072154
F51.14252163477414
F55.52384767246733
F-49.071014108036586
F-27.58172314581942
F105.39537859765353
F-98.24096570437045
F0.10960480946130152
F10.159153615993624
F15.165077193261618
F-49.18483665951768
F80.61054211261883
F17.693221279322277
F-79.94101799171884
F-27.206633143809825
F36.19401458219978
F0.14994333496021175
F-30.69030397321543
F-84.55915080945242
F91.19389230280504
F-108.04840461554943
F-83.72056210458553
F142.47160398239498
F-31.550290087774535
F36.707866760414866
F18.884954838328692
F71.70716635270637
F-50.82240988744361
F-32.43413329162596
F61.72968678934435
F66.43466072056268
F-73.95467435263963
F23.85457818636571
F-87.7265750511993
F-1.8748515846968337
F38.07190561143468
F143.69586158558172
F-172.43152865895433
F45.85189367859141
F-19.95999030618094
F-47.74617077683677
F201.72072707508096
F-181.85742850508893
F66.93533428805274
F42.933600595687025
F-243.49493975579517
F280.7826868818841
F-99.6676399377335
F-29.431820851728258
F-83.2013368274237
F341.27569625474746
F-415.1821052026068
F336.9764261986478
F-185.61631099763645
F147.19498961530084
F-128.21342118532624
F-94.15732986299017
F109.97986726754799
F-9.469215445894267
F-49.2873185032464
F66.03726779976154
F59.95935581699948
F-25.754533348883875
F-161.73364814651643
F145.4338586811855
F112.28949255505209
F-428.7445261356399
F420.9639667133462
F-85.76744425043546
F-146.69879013561962
F258.4121146726923
F-391.7861954372611
F429.73047102632114
F-202.91600677897452
F-59.67687774193333
F74.90848041542218
F44.07601632618339
F-183.44904450130448
F199.40530046926213
F-60.97680591528858
F64.66695058640276
F-70.65113601724406
F-0.0387330148941
F-0.0387330148941
F-7.230095957867948
F-45.676175252702954
F267.27489034966857
F-351.9776586033329
F294.5200730717147
F-167.67754041595364
F-144.91103666488692
F148.0303859552451
F-66.88908342876871
F146.85726367358956
F-148.98753350071203
F158.0700428929155
F-81.88468787749179
F-6.461399909693906
F-67.104315517347
F239.84831842260292
F-246.03792643917762
F174.61710370303635
F-8.230471699384351
F-172.83899686725889
F76.78388526679109
F-168.34337869437593
F279.63791957621766
F82.38800923701103
F-281.0932240289551
F17.480204109815705
F350.71214658767144
F-641.7720783205154
F645.9754039483466
F-656.7500448197168
F674.1997459928763
F-398.4542500261593
F4.960780443019634
F206.27007034263795
F-0.6415301214221331
F-106.60637981586115
F-104.64029078743745
F105.2298687505614
F3.4749481766870627
F101.00114242760026
F-321.34545586261623
F441.86981619270995
F-227.97484196592632
F-221.60948830561665
F340.1349719310256
F-0.45291466296459754
F-229.39393104865408
F234.10451205439614
F-120.98933991392268
F-237.6889268526846
F481.91513922680144
F-365.566240622831
tp32
abag0
(g7
g2
Ntp33
Rp34
(lp35
F100.0
aF20.0
a(ta(F0.0
F0.0017730496453900709
F0.0035460992907801418
F0.005319148936170213
F0.0070921985815602835
F0.008865248226950354
F0.010638297872340425
F0.012411347517730497
F0.014184397163120567
F0.015957446808510637
F0.017730496453900707
F0.01950354609929078
F0.02127659574468085
F0.02304964539007092
F0.024822695035460994
F0.02659574468085106
F0.028368794326241134
F0.030141843971631204
F0.031914893617021274
F0.03368794326241135
F0.035460992907801414
F0.03723404255319149
F0.03900709219858156
F0.040780141843971635
F0.0425531914893617
F0.04432624113475177
F0.04609929078014184
F0.047872340425531915
F0.04964539007092199
F0.051418439716312055
F0.05319148936170212
F0.054964539007092195
F0.05673758865248227
F0.05851063829787234
F0.06028368794326241
F0.062056737588652475
F0.06382978723404255
F0.06560283687943262
F0.0673758865248227
F0.06914893617021277
F0.07092198581560283
F0.07269503546099292
F0.07446808510638298
F0.07624113475177303
F0.07801418439716312
F0.07978723404255318
F0.08156028368794327
F0.08333333333333333
F0.0851063829787234
F0.08687943262411348
F0.08865248226950354
F0.09042553191489362
F0.09219858156028368
F0.09397163120567376
F0.09574468085106383
F0.09751773049645389
F0.09929078014184398
F0.10106382978723404
F0.10283687943262411
F0.10460992907801418
F0.10638297872340424
F0.10815602836879433
F0.10992907801418439
F0.11170212765957446
F0.11347517730496454
F0.1152482269503546
F0.11702127659574468
F0.11879432624113474
F0.12056737588652482
F0.12234042553191489
F0.12411347517730495
F0.12588652482269502
F0.1276595744680851
F0.12943262411347517
F0.13120567375886524
F0.13297872340425532
F0.1347517730496454
F0.13652482269503546
F0.13829787234042554
F0.14007092198581558
F0.14184397163120566
F0.14361702127659573
F0.14539007092198583
F0.14716312056737588
F0.14893617021276595
F0.15070921985815602
F0.15248226950354607
F0.15425531914893617
F0.15602836879432624
F0.1578014184397163
F0.15957446808510636
F0.16134751773049644
F0.16312056737588654
F0.16489361702127658
F0.16666666666666666
F0.16843971631205673
F0.1702127659574468
F0.17198581560283688
F0.17375886524822695
F0.175531914893617
F0.17730496453900707
F0.17907801418439717
F0.18085106382978725
F0.1826241134751773
F0.18439716312056736
F0.18617021276595744
F0.1879432624113475
F0.18971631205673758
F0.19148936170212766
F0.1932624113475177
F0.19503546099290778
F0.19680851063829788
F0.19858156028368795
F0.200354609929078
F0.20212765957446807
F0.20390070921985815
F0.20567375886524822
F0.2074468085106383
F0.20921985815602837
F0.2109929078014184
F0.21276595744680848
F0.21453900709219859
F0.21631205673758866
F0.2180851063829787
F0.21985815602836878
F0.22163120567375885
F0.22340425531914893
F0.225177304964539
F0.22695035460992907
F0.22872340425531915
F0.2304964539007092
F0.2322695035460993
F0.23404255319148937
F0.2358156028368794
F0.23758865248226949
F0.23936170212765956
F0.24113475177304963
F0.2429078014184397
F0.24468085106382978
F0.24645390070921985
F0.2482269503546099
F0.25
F0.25177304964539005
F0.25354609929078015
F0.2553191489361702
F0.25709219858156024
F0.25886524822695034
F0.26063829787234044
F0.2624113475177305
F0.26418439716312053
F0.26595744680851063
F0.26773049645390073
F0.2695035460992908
F0.2712765957446808
F0.2730496453900709
F0.274822695035461
F0.2765957446808511
F0.2783687943262411
F0.28014184397163117
F0.28191489361702127
F0.2836879432624113
F0.2854609929078014
F0.28723404255319146
F0.28900709219858156
F0.29078014184397166
F0.29255319148936165
F0.29432624113475175
F0.2960992907801418
F0.2978723404255319
F0.299645390070922
F0.30141843971631205
F0.30319148936170215
F0.30496453900709214
F0.30673758865248224
F0.30851063829787234
F0.3102836879432624
F0.3120567375886525
F0.31382978723404253
F0.3156028368794326
F0.3173758865248227
F0.3191489361702127
F0.32092198581560283
F0.3226950354609929
F0.324468085106383
F0.3262411347517731
F0.32801418439716307
F0.32978723404255317
F0.3315602836879432
F0.3333333333333333
F0.3351063829787234
F0.33687943262411346
F0.33865248226950356
F0.3404255319148936
F0.34219858156028365
F0.34397163120567376
F0.3457446808510638
F0.3475177304964539
F0.349290780141844
F0.351063829787234
F0.3528368794326241
F0.35460992907801414
F0.35638297872340424
F0.35815602836879434
F0.3599290780141844
F0.3617021276595745
F0.3634751773049645
F0.3652482269503546
F0.3670212765957447
F0.36879432624113473
F0.37056737588652483
F0.3723404255319149
F0.374113475177305
F0.375886524822695
F0.37765957446808507
F0.37943262411347517
F0.3812056737588652
F0.3829787234042553
F0.3847517730496454
F0.3865248226950354
F0.3882978723404255
F0.39007092198581556
F0.39184397163120566
F0.39361702127659576
F0.3953900709219858
F0.3971631205673759
F0.3989361702127659
F0.400709219858156
F0.4024822695035461
F0.40425531914893614
F0.40602836879432624
F0.4078014184397163
F0.4095744680851064
F0.41134751773049644
F0.4131205673758865
F0.4148936170212766
F0.41666666666666663
F0.41843971631205673
F0.42021276595744683
F0.4219858156028368
F0.4237588652482269
F0.42553191489361697
F0.42730496453900707
F0.42907801418439717
F0.4308510638297872
F0.4326241134751773
F0.4343971631205673
F0.4361702127659574
F0.4379432624113475
F0.43971631205673756
F0.44148936170212766
F0.4432624113475177
F0.4450354609929078
F0.44680851063829785
F0.4485815602836879
F0.450354609929078
F0.45212765957446804
F0.45390070921985815
F0.45567375886524825
F0.4574468085106383
F0.45921985815602834
F0.4609929078014184
F0.4627659574468085
F0.4645390070921986
F0.46631205673758863
F0.46808510638297873
F0.4698581560283687
F0.4716312056737588
F0.4734042553191489
F0.47517730496453897
F0.4769503546099291
F0.4787234042553191
F0.4804964539007092
F0.48226950354609927
F0.4840425531914893
F0.4858156028368794
F0.48758865248226946
F0.48936170212765956
F0.49113475177304966
F0.4929078014184397
F0.49468085106382975
F0.4964539007092198
F0.4982269503546099
F0.5
F0.50177304964539
F0.5035460992907801
F0.5053191489361701
F0.5070921985815603
F0.5088652482269503
F0.5106382978723404
F0.5124113475177304
F0.5141843971631205
F0.5159574468085106
F0.5177304964539007
F0.5195035460992907
F0.5212765957446809
F0.5230496453900708
F0.524822695035461
F0.526595744680851
F0.5283687943262411
F0.5301418439716312
F0.5319148936170213
F0.5336879432624113
F0.5354609929078015
F0.5372340425531914
F0.5390070921985816
F0.5407801418439716
F0.5425531914893617
F0.5443262411347518
F0.5460992907801419
F0.5478723404255319
F0.549645390070922
F0.551418439716312
F0.5531914893617021
F0.5549645390070922
F0.5567375886524822
F0.5585106382978723
F0.5602836879432623
F0.5620567375886525
F0.5638297872340425
F0.5656028368794326
F0.5673758865248226
F0.5691489361702128
F0.5709219858156028
F0.5726950354609929
F0.5744680851063829
F0.576241134751773
F0.5780141843971631
F0.5797872340425532
F0.5815602836879433
F0.5833333333333333
F0.5851063829787233
F0.5868794326241135
F0.5886524822695035
F0.5904255319148937
F0.5921985815602836
F0.5939716312056736
F0.5957446808510638
F0.5975177304964538
F0.599290780141844
F0.6010638297872339
F0.6028368794326241
F0.6046099290780141
F0.6063829787234043
F0.6081560283687943
F0.6099290780141843
F0.6117021276595744
F0.6134751773049645
F0.6152482269503546
F0.6170212765957447
F0.6187943262411346
F0.6205673758865248
F0.6223404255319148
F0.624113475177305
F0.625886524822695
F0.6276595744680851
F0.6294326241134751
F0.6312056737588652
F0.6329787234042553
F0.6347517730496454
F0.6365248226950354
F0.6382978723404255
F0.6400709219858156
F0.6418439716312057
F0.6436170212765957
F0.6453900709219857
F0.6471631205673758
F0.648936170212766
F0.650709219858156
F0.6524822695035462
F0.6542553191489361
F0.6560283687943261
F0.6578014184397163
F0.6595744680851063
F0.6613475177304965
F0.6631205673758864
F0.6648936170212766
F0.6666666666666666
F0.6684397163120567
F0.6702127659574468
F0.6719858156028368
F0.6737588652482269
F0.675531914893617
F0.6773049645390071
F0.6790780141843972
F0.6808510638297872
F0.6826241134751773
F0.6843971631205673
F0.6861702127659575
F0.6879432624113475
F0.6897163120567377
F0.6914893617021276
F0.6932624113475176
F0.6950354609929078
F0.6968085106382979
F0.698581560283688
F0.7003546099290779
F0.702127659574468
F0.7039007092198581
F0.7056737588652482
F0.7074468085106383
F0.7092198581560283
F0.7109929078014184
F0.7127659574468085
F0.7145390070921985
F0.7163120567375887
F0.7180851063829786
F0.7198581560283688
F0.7216312056737588
F0.723404255319149
F0.725177304964539
F0.726950354609929
F0.7287234042553191
F0.7304964539007092
F0.7322695035460993
F0.7340425531914894
F0.7358156028368794
F0.7375886524822695
F0.7393617021276595
F0.7411347517730497
F0.7429078014184397
F0.7446808510638298
F0.7464539007092198
F0.74822695035461
F0.75
F0.75177304964539
F0.7535460992907801
F0.7553191489361701
F0.7570921985815603
F0.7588652482269503
F0.7606382978723405
F0.7624113475177304
F0.7641843971631205
F0.7659574468085106
F0.7677304964539007
F0.7695035460992908
F0.7712765957446808
F0.7730496453900708
F0.774822695035461
F0.776595744680851
F0.7783687943262412
F0.7801418439716311
F0.7819148936170213
F0.7836879432624113
F0.7854609929078015
F0.7872340425531915
F0.7890070921985815
F0.7907801418439716
F0.7925531914893617
F0.7943262411347518
F0.7960992907801419
F0.7978723404255318
F0.799645390070922
F0.801418439716312
F0.8031914893617021
F0.8049645390070922
F0.8067375886524822
F0.8085106382978723
F0.8102836879432623
F0.8120567375886525
F0.8138297872340425
F0.8156028368794326
F0.8173758865248226
F0.8191489361702128
F0.8209219858156028
F0.8226950354609929
F0.8244680851063829
F0.826241134751773
F0.8280141843971631
F0.8297872340425532
F0.8315602836879433
F0.8333333333333333
F0.8351063829787233
F0.8368794326241135
F0.8386524822695035
F0.8404255319148937
F0.8421985815602836
F0.8439716312056736
F0.8457446808510638
F0.8475177304964538
F0.849290780141844
F0.8510638297872339
F0.8528368794326241
F0.8546099290780141
F0.8563829787234043
F0.8581560283687943
F0.8599290780141843
F0.8617021276595744
F0.8634751773049645
F0.8652482269503546
F0.8670212765957447
F0.8687943262411346
F0.8705673758865248
F0.8723404255319148
F0.874113475177305
F0.875886524822695
F0.8776595744680851
F0.8794326241134751
F0.8812056737588652
F0.8829787234042553
F0.8847517730496454
F0.8865248226950354
F0.8882978723404255
F0.8900709219858156
F0.8918439716312057
F0.8936170212765957
F0.8953900709219857
F0.8971631205673758
F0.898936170212766
F0.900709219858156
F0.9024822695035462
F0.9042553191489361
F0.9060283687943261
F0.9078014184397163
F0.9095744680851063
F0.9113475177304965
F0.9131205673758864
F0.9148936170212766
F0.9166666666666666
F0.9184397163120567
F0.9202127659574468
F0.9219858156028368
F0.9237588652482269
F0.925531914893617
F0.9273049645390071
F0.9290780141843972
F0.9308510638297871
F0.9326241134751773
F0.9343971631205673
F0.9361702127659575
F0.9379432624113475
F0.9397163120567374
F0.9414893617021276
F0.9432624113475176
F0.9450354609929078
F0.9468085106382979
F0.9485815602836879
F0.9503546099290779
F0.952127659574468
F0.9539007092198581
F0.9556737588652482
F0.9574468085106382
F0.9592198581560283
F0.9609929078014184
F0.9627659574468085
F0.9645390070921985
F0.9663120567375886
F0.9680851063829786
F0.9698581560283688
F0.9716312056737588
F0.973404255319149
F0.9751773049645389
F0.976950354609929
F0.9787234042553191
F0.9804964539007092
F0.9822695035460993
F0.9840425531914893
F0.9858156028368794
F0.9875886524822695
F0.9893617021276595
F0.9911347517730497
F0.9929078014184396
F0.9946808510638298
F0.9964539007092198
F0.99822695035461
F1.0
tp36
a(F0.0
F2.502939016146129
F-2.3915799455508746
F-1.2980093793512837
F-0.08911695176803415
F1.2348528067014184
F1.3166467432335902
F0.0859432079402569
F-2.5551408448912944
F6.344670641256227
F-9.98526625497497
F5.960532897884588
F-2.3362361447033604
F2.4844518730096925
F-1.1694908385701481
F2.6435894005026093
F-2.491872675129431
F-1.5250774366203703
F2.647453956641945
F-1.2055290991386658
F2.7256503340275815
F0.25540335351836413
F-4.14390149251372
F-0.3346684866861617
F-1.4974987651636644
F5.599319981665065
F-6.804751701612216
F2.242722968559205
F4.606614935855175
F-7.00398366759229
F3.7090122341643394
F4.88834321434876
F-8.568095460441574
F3.609191046412364
F3.460808451829215
F-5.8100432409817016
F2.4536325799922993
F-1.3121572237346537
F7.644394127875029
F-8.504520081137526
F3.702260103220841
F5.3096873996899845
F-7.315918539209095
F2.337303118184761
F-6.137070302787736
F10.60070050887511
F-11.74820333453465
F4.948129870697219
F0.7159157132633366
F-6.728338497295894
F7.377662749371563
F-5.7255765694456215
F7.451835890500901
F-3.9497238650306943
F9.657560411633131
F-8.847567249014963
F0.33690762074718184
F3.762750174411919
F-3.0107127528743347
F-2.265483082040532
F1.4554227425265651
F2.0447385367053954
F-3.341533552720168
F1.2181377379738894
F-3.454032763777401
F3.0035864568737467
F4.276852769845007
F-6.870855197702412
F-1.2994184150802457
F9.351191718689073
F-5.979195310314801
F-5.174332689800143
F4.903346706717252
F0.9414164448721166
F-1.9978491824938531
F9.426193359641712
F-1.9991286603307818
F-0.49099717034012486
F-7.9653712829510885
F2.4136862891886537
F-3.3752240601486942
F9.26123367395043
F-8.083003494738653
F-2.224319033909094
F6.0712413090009445
F-7.1633732492810385
F8.65760356078719
F-4.16772751754135
F-1.4032432498854484
F2.0223203435937007
F6.887670478380375
F-13.597181587271873
F9.402285985779057
F-3.5929972414147198
F2.865458684234254
F-5.708184413868951
F5.061403375451217
F-5.262482065654073
F7.3667763701212055
F-4.667342138644938
F0.5725050756940043
F2.8069130290541158
F2.917395343428823
F-3.973689541738098
F1.1538154867249812
F0.6671203125935846
F-4.729427519676422
F3.4606751994655447
F-3.5952719898364447
F8.368968930913178
F-4.595739089988155
F-4.4152978177983195
F-0.779721218268735
F2.305174310785482
F3.1320871826594376
F-1.8114906781695264
F9.342633733393608
F-4.325369534798744
F0.4248246348660549
F6.079438196615485
F4.435228486420578
F3.862570569122317
F-16.813283555617865
F2.310961496369975
F7.756566141032579
F4.823952167060654
F4.0731742285797035
F-9.267571321821313
F7.7290838457766275
F-1.3790054492562878
F-1.1604844340345284
F6.036894486858413
F-0.33086697727310727
F-3.0353570699703436
F8.028812709865958
F-4.820595920912517
F-2.0211061811042836
F8.857722377635389
F-16.038857910777825
F4.658725737935805
F1.6102103848735494
F-6.423360392559034
F4.071258290786567
F-0.4667541061987529
F-0.7115627343763868
F3.3697783741012803
F-7.539382973034909
F-0.19260242769709207
F7.411322820795141
F-3.3306675100864385
F-14.49295659221334
F4.2895947483602255
F3.6030415688394295
F12.637614494815583
F-3.926809605011101
F-13.05816323912307
F2.4221771070806395
F12.141206401173234
F-14.754835079859488
F-1.9406120950793386
F19.025122821678927
F0.7421793792674443
F-2.240708634623125
F-6.29918094751429
F-2.7169095051915297
F3.44531198522278
F-1.6977824083106496
F-1.3853498899603183
F3.4926312338307
F1.7883817562745132
F3.652102664004215
F-8.3393133755726
F-4.900948463894546
F6.97559575129816
F-7.108648626983961
F-1.686842420198536
F1.5790988931733
F7.1439072754592745
F10.878548899021286
F-6.813567395349813
F-12.522385205709343
F7.293019604080868
F-1.8217170886092522
F3.7891166680368156
F0.13423463343491437
F-1.7436292818066008
F3.8896462439650668
F-13.12008951643797
F11.021761879380948
F-9.0318346691605
F1.1580770404220935
F10.025527279824987
F-5.480142293182959
F-4.29430722464606
F7.822718763335896
F0.5809008927620682
F-2.0837392487110042
F-3.9657315493823138
F1.7555455581748973
F-5.880495179546962
F19.654369158870512
F-21.99274674534722
F6.644263482982914
F0.41645929207401394
F6.925911242143566
F10.238341509734132
F-7.967340652634735
F-9.102887213107898
F14.411884949656159
F-10.457793301671146
F-4.619263949129674
F0.9406893160152816
F5.955992463530337
F-20.692669809145944
F13.509529743676572
F6.4856730253977535
F4.977958595922017
F-9.017894849001955
F6.124057319775261
F12.345084448911917
F-17.66596555077519
F1.426037922197741
F9.404866349576247
F-13.51879924215564
F-9.655440076818737
F8.81271322188067
F15.949324402832216
F-2.598623321441981
F-10.995730050258707
F20.42398340181194
F-1.4993310061352147
F-8.414535837365163
F-10.791789261645507
F3.894754096516918
F0.9842559811649237
F2.6724280804245377
F-12.266649288084164
F9.476885903928313
F14.192970154538745
F-3.3423500033211004
F-19.80780176040409
F4.352549848594566
F10.629025308930522
F-8.915789579153692
F16.612463956426044
F-9.140073740487667
F-20.459393077802837
F30.643236130239014
F-10.45622022637086
F-19.58104924058811
F13.561851979006835
F15.086775551243232
F-17.539940868222445
F-1.0537270829091245
F1.79143794493988
F13.344342255474706
F1.8241586818738178
F-34.87836860819381
F6.386078728732259
F30.422056283103686
F-12.309912135390945
F-14.043578509172441
F4.542660569207512
F22.494876548962736
F15.378565322300593
F-4.090243591433751
F-16.487793809358617
F-32.99458572901755
F35.13108896093999
F14.539115939185068
F-49.78840151363129
F35.1524921627865
F-2.0229699142727693
F-3.2081458092673634
F10.245655466784056
F-46.589168087939356
F53.396150418840826
F18.288441117899342
F-59.448286035295105
F17.64248831766665
F24.884763637910222
F-30.285682741915572
F-13.342663164889846
F37.207615576619
F-17.50377163981099
F-1.9097122818059957
F14.707874242674883
F-26.803542691787037
F6.153199733534521
F25.197215199249563
F9.453246318365824
F-26.956516298759897
F-7.307742293028527
F19.372142874308324
F2.502648511355706
F-28.411745237512815
F11.85305772106034
F15.862802937761293
F-13.909588007758504
F-1.2166745640996348
F28.022544728622922
F-23.013333963328133
F-28.664142467731583
F17.72368882058167
F-9.972616781479415
F21.407131681002397
F-10.87024492395356
F-6.409052740893203
F40.78587796038603
F-25.584313868336004
F-15.667501852141907
F34.913762030216105
F-20.576045617092237
F1.191803416045266
F29.48349743068723
F-15.443401930774321
F-16.27662444212803
F5.126229074209415
F4.444082350885898
F-4.4725690673029765
F5.011655582374453
F2.3309320100131643
F23.0471759597966
F-23.6509454193267
F-20.621909000024335
F6.988080068129066
F17.95754454082455
F10.925194636964171
F16.02855290566551
F-30.361147649015113
F-31.049043573546236
F43.14096500160248
F-25.41436951786548
F49.8721436618721
F-3.104957908271787
F-91.67181713061522
F13.258691973952503
F38.51172631847692
F24.05199339850605
F-38.998358265774066
F-29.709073375172817
F71.91939558223747
F-9.656622063214341
F-43.30855521391896
F58.48628575057023
F-34.493358941863924
F-38.00599260221968
F48.438061664245545
F-18.285263579493613
F21.473502296068325
F-10.826621235938848
F-8.020404973958312
F55.43968545829858
F-23.35504586249688
F-33.60001742676578
F22.443320569042637
F-1.694114656303603
F-37.9289518005474
F36.0306949750729
F38.17364243532529
F-71.75092023575077
F29.692877426097347
F8.761832780419306
F7.564473126266904
F-15.218028722409457
F-8.3574841869969
F9.380398049188841
F32.25794766618782
F-31.959934319274762
F-17.39148817472526
F-25.646032629334446
F15.865572042161066
F43.04904047572583
F45.15429879682043
F-96.03662723633303
F-18.74386210119447
F24.900986103669524
F36.34292442821844
F-36.462444061138996
F-0.8942449377815912
F-1.1273119351709098
F8.516262199093505
F0.36969881602490506
F-11.931303054460857
F67.56284685404201
F-15.733442549733969
F-79.88662353476984
F26.307186835401797
F88.85922832180667
F7.910735044987412
F-123.49793340884239
F35.46189498573518
F75.68393497872296
F-38.30294117434222
F-24.792200250744397
F25.417367895262142
F-15.653939638854284
F20.118327444244507
F-94.643049263962
F71.86274277511563
F70.57779622266085
F-25.8214507071222
F-80.16328911657155
F-25.809310016441597
F45.443910593565874
F66.59493005910237
F-130.4092205533948
F67.80637083898792
F30.932613742965668
F-31.366258533885006
F32.076905922946295
F-61.383418054802476
F27.542826300286116
F107.27613344142955
F-152.68262464109284
F15.755433907333487
F10.26109344736654
F70.93664481271456
F-101.72052900064305
F26.286893663198818
F-1.3646294352077721
F-10.920917689895944
F-49.228769884904075
F-57.83602698446555
F47.26275929265963
F57.424831008252994
F-11.748352847518317
F27.969215212719956
F146.77584752048853
F-142.5346955565124
F-14.985593128922421
F100.92691156989933
F-146.63540100899775
F156.90802570655194
F-72.45627492358443
F-68.173766409018
F201.71971065169413
F-135.7009064919314
F-10.272430147258683
F15.041128109984877
F127.57662937485681
F-175.47894376511286
F8.646520006519314
F45.467374922980625
F17.05205346735253
F-74.01007157868489
F8.373816447319916
F36.88255597581247
F-0.08102176566978639
F29.996990241289634
F59.604488458131605
F-196.66665663634683
F176.83080931509568
F45.217170822212445
F-161.65602165971612
F27.81647346295382
F86.03709151593524
F-75.87614168578861
F292.0643965617915
F-368.30913479824386
F60.087008479278346
F77.00988084227953
F-22.777808707858572
F51.174627863390064
F-150.51199757844572
F106.5293690477403
F-101.17314546143237
F147.63388486350533
F-177.62246503038756
F83.19149349116758
F175.05047668985685
F-154.57773701842612
F-234.6517349953193
F290.61638354146714
F-17.614894177693042
F-42.60276342655544
F252.08721502922512
F-294.95861890127526
F78.78748192790225
F125.17572941898788
F-231.7925682045325
F-61.95455160232675
F249.52396251846892
F-116.22754605132722
F-17.813942945214958
F158.67587940447962
F-358.29371445844805
F223.62431969380026
F0.03796602449999997
F9.265176278263583
F32.30927555589151
F-160.68320306877146
F117.39104225225174
F-18.2193820936602
F-106.54130642460794
F130.1156010279649
F45.53938198813693
F-108.1865819982346
F118.2376646870538
F-53.876079457444746
F48.15622151022961
F-112.74207919104279
F122.76026176270474
F-39.42251752827628
F163.86273804185808
F-322.267462969322
F134.8568707898713
F0.03796602449999997
F-7.991951005720024
F-56.454378325944
F119.2009104915534
F-202.4474066591215
F159.89601150518158
F126.86424203496611
F-199.70454676374274
F205.41644326567936
F-228.56085601513635
F13.464826561708717
F155.01824161004205
F-11.49954107856417
F-158.86073751345728
F4.451122003492443
F93.8781586521699
F138.01966257812904
F-339.12902545705765
F-39.28510229416435
F568.734800895904
F-266.847016696627
F-258.056520369929
F31.578272061481762
F513.5246386182943
F-208.0760275871738
F-594.1991775957885
F523.0560960883138
F-170.6642768992824
F172.35856872066145
F-169.6147633396168
F267.8734805367355
F-272.4748688498273
F175.69377209846851
F-275.6832121070515
F285.853891070548
F-86.35823081550247
F183.07293120594332
F-394.0217664845499
F200.34491728057398
F-4.1290887875495725
F-105.94517496585006
F11.162519266179668
F417.68271921079145
F-312.64657281607214
F107.48165514454494
F-107.46669159404073
F-7.012195354045382
F-332.209060836755
F444.473115875852
F-111.31227432605176
F5.980038216155436
F228.77983960098743
F-234.74684971326548
F-353.9794549132089
F350.7211478753939
F-0.03749066089368101
F1.9343291505086855
F248.75826280176395
tp37
abag0
(g7
g2
Ntp38
Rp39
(lp40
F100.0
aF20.0
a(ta(F0.0
F0.0017730496453900709
F0.0035460992907801418
F0.005319148936170213
F0.0070921985815602835
F0.008865248226950354
F0.010638297872340425
F0.012411347517730497
F0.014184397163120567
F0.015957446808510637
F0.017730496453900707
F0.01950354609929078
F0.02127659574468085
F0.02304964539007092
F0.024822695035460994
F0.02659574468085106
F0.028368794326241134
F0.030141843971631204
F0.031914893617021274
F0.03368794326241135
F0.035460992907801414
F0.03723404255319149
F0.03900709219858156
F0.040780141843971635
F0.0425531914893617
F0.04432624113475177
F0.04609929078014184
F0.047872340425531915
F0.04964539007092199
F0.051418439716312055
F0.05319148936170212
F0.054964539007092195
F0.05673758865248227
F0.05851063829787234
F0.06028368794326241
F0.062056737588652475
F0.06382978723404255
F0.06560283687943262
F0.0673758865248227
F0.06914893617021277
F0.07092198581560283
F0.07269503546099292
F0.07446808510638298
F0.07624113475177303
F0.07801418439716312
F0.07978723404255318
F0.08156028368794327
F0.08333333333333333
F0.0851063829787234
F0.08687943262411348
F0.08865248226950354
F0.09042553191489362
F0.09219858156028368
F0.09397163120567376
F0.09574468085106383
F0.09751773049645389
F0.09929078014184398
F0.10106382978723404
F0.10283687943262411
F0.10460992907801418
F0.10638297872340424
F0.10815602836879433
F0.10992907801418439
F0.11170212765957446
F0.11347517730496454
F0.1152482269503546
F0.11702127659574468
F0.11879432624113474
F0.12056737588652482
F0.12234042553191489
F0.12411347517730495
F0.12588652482269502
F0.1276595744680851
F0.12943262411347517
F0.13120567375886524
F0.13297872340425532
F0.1347517730496454
F0.13652482269503546
F0.13829787234042554
F0.14007092198581558
F0.14184397163120566
F0.14361702127659573
F0.14539007092198583
F0.14716312056737588
F0.14893617021276595
F0.15070921985815602
F0.15248226950354607
F0.15425531914893617
F0.15602836879432624
F0.1578014184397163
F0.15957446808510636
F0.16134751773049644
F0.16312056737588654
F0.16489361702127658
F0.16666666666666666
F0.16843971631205673
F0.1702127659574468
F0.17198581560283688
F0.17375886524822695
F0.175531914893617
F0.17730496453900707
F0.17907801418439717
F0.18085106382978725
F0.1826241134751773
F0.18439716312056736
F0.18617021276595744
F0.1879432624113475
F0.18971631205673758
F0.19148936170212766
F0.1932624113475177
F0.19503546099290778
F0.19680851063829788
F0.19858156028368795
F0.200354609929078
F0.20212765957446807
F0.20390070921985815
F0.20567375886524822
F0.2074468085106383
F0.20921985815602837
F0.2109929078014184
F0.21276595744680848
F0.21453900709219859
F0.21631205673758866
F0.2180851063829787
F0.21985815602836878
F0.22163120567375885
F0.22340425531914893
F0.225177304964539
F0.22695035460992907
F0.22872340425531915
F0.2304964539007092
F0.2322695035460993
F0.23404255319148937
F0.2358156028368794
F0.23758865248226949
F0.23936170212765956
F0.24113475177304963
F0.2429078014184397
F0.24468085106382978
F0.24645390070921985
F0.2482269503546099
F0.25
F0.25177304964539005
F0.25354609929078015
F0.2553191489361702
F0.25709219858156024
F0.25886524822695034
F0.26063829787234044
F0.2624113475177305
F0.26418439716312053
F0.26595744680851063
F0.26773049645390073
F0.2695035460992908
F0.2712765957446808
F0.2730496453900709
F0.274822695035461
F0.2765957446808511
F0.2783687943262411
F0.28014184397163117
F0.28191489361702127
F0.2836879432624113
F0.2854609929078014
F0.28723404255319146
F0.28900709219858156
F0.29078014184397166
F0.29255319148936165
F0.29432624113475175
F0.2960992907801418
F0.2978723404255319
F0.299645390070922
F0.30141843971631205
F0.30319148936170215
F0.30496453900709214
F0.30673758865248224
F0.30851063829787234
F0.3102836879432624
F0.3120567375886525
F0.31382978723404253
F0.3156028368794326
F0.3173758865248227
F0.3191489361702127
F0.32092198581560283
F0.3226950354609929
F0.324468085106383
F0.3262411347517731
F0.32801418439716307
F0.32978723404255317
F0.3315602836879432
F0.3333333333333333
F0.3351063829787234
F0.33687943262411346
F0.33865248226950356
F0.3404255319148936
F0.34219858156028365
F0.34397163120567376
F0.3457446808510638
F0.3475177304964539
F0.349290780141844
F0.351063829787234
F0.3528368794326241
F0.35460992907801414
F0.35638297872340424
F0.35815602836879434
F0.3599290780141844
F0.3617021276595745
F0.3634751773049645
F0.3652482269503546
F0.3670212765957447
F0.36879432624113473
F0.37056737588652483
F0.3723404255319149
F0.374113475177305
F0.375886524822695
F0.37765957446808507
F0.37943262411347517
F0.3812056737588652
F0.3829787234042553
F0.3847517730496454
F0.3865248226950354
F0.3882978723404255
F0.39007092198581556
F0.39184397163120566
F0.39361702127659576
F0.3953900709219858
F0.3971631205673759
F0.3989361702127659
F0.400709219858156
F0.4024822695035461
F0.40425531914893614
F0.40602836879432624
F0.4078014184397163
F0.4095744680851064
F0.41134751773049644
F0.4131205673758865
F0.4148936170212766
F0.41666666666666663
F0.41843971631205673
F0.42021276595744683
F0.4219858156028368
F0.4237588652482269
F0.42553191489361697
F0.42730496453900707
F0.42907801418439717
F0.4308510638297872
F0.4326241134751773
F0.4343971631205673
F0.4361702127659574
F0.4379432624113475
F0.43971631205673756
F0.44148936170212766
F0.4432624113475177
F0.4450354609929078
F0.44680851063829785
F0.4485815602836879
F0.450354609929078
F0.45212765957446804
F0.45390070921985815
F0.45567375886524825
F0.4574468085106383
F0.45921985815602834
F0.4609929078014184
F0.4627659574468085
F0.4645390070921986
F0.46631205673758863
F0.46808510638297873
F0.4698581560283687
F0.4716312056737588
F0.4734042553191489
F0.47517730496453897
F0.4769503546099291
F0.4787234042553191
F0.4804964539007092
F0.48226950354609927
F0.4840425531914893
F0.4858156028368794
F0.48758865248226946
F0.48936170212765956
F0.49113475177304966
F0.4929078014184397
F0.49468085106382975
F0.4964539007092198
F0.4982269503546099
F0.5
F0.50177304964539
F0.5035460992907801
F0.5053191489361701
F0.5070921985815603
F0.5088652482269503
F0.5106382978723404
F0.5124113475177304
F0.5141843971631205
F0.5159574468085106
F0.5177304964539007
F0.5195035460992907
F0.5212765957446809
F0.5230496453900708
F0.524822695035461
F0.526595744680851
F0.5283687943262411
F0.5301418439716312
F0.5319148936170213
F0.5336879432624113
F0.5354609929078015
F0.5372340425531914
F0.5390070921985816
F0.5407801418439716
F0.5425531914893617
F0.5443262411347518
F0.5460992907801419
F0.5478723404255319
F0.549645390070922
F0.551418439716312
F0.5531914893617021
F0.5549645390070922
F0.5567375886524822
F0.5585106382978723
F0.5602836879432623
F0.5620567375886525
F0.5638297872340425
F0.5656028368794326
F0.5673758865248226
F0.5691489361702128
F0.5709219858156028
F0.5726950354609929
F0.5744680851063829
F0.576241134751773
F0.5780141843971631
F0.5797872340425532
F0.5815602836879433
F0.5833333333333333
F0.5851063829787233
F0.5868794326241135
F0.5886524822695035
F0.5904255319148937
F0.5921985815602836
F0.5939716312056736
F0.5957446808510638
F0.5975177304964538
F0.599290780141844
F0.6010638297872339
F0.6028368794326241
F0.6046099290780141
F0.6063829787234043
F0.6081560283687943
F0.6099290780141843
F0.6117021276595744
F0.6134751773049645
F0.6152482269503546
F0.6170212765957447
F0.6187943262411346
F0.6205673758865248
F0.6223404255319148
F0.624113475177305
F0.625886524822695
F0.6276595744680851
F0.6294326241134751
F0.6312056737588652
F0.6329787234042553
F0.6347517730496454
F0.6365248226950354
F0.6382978723404255
F0.6400709219858156
F0.6418439716312057
F0.6436170212765957
F0.6453900709219857
F0.6471631205673758
F0.648936170212766
F0.650709219858156
F0.6524822695035462
F0.6542553191489361
F0.6560283687943261
F0.6578014184397163
F0.6595744680851063
F0.6613475177304965
F0.6631205673758864
F0.6648936170212766
F0.6666666666666666
F0.6684397163120567
F0.6702127659574468
F0.6719858156028368
F0.6737588652482269
F0.675531914893617
F0.6773049645390071
F0.6790780141843972
F0.6808510638297872
F0.6826241134751773
F0.6843971631205673
F0.6861702127659575
F0.6879432624113475
F0.6897163120567377
F0.6914893617021276
F0.6932624113475176
F0.6950354609929078
F0.6968085106382979
F0.698581560283688
F0.7003546099290779
F0.702127659574468
F0.7039007092198581
F0.7056737588652482
F0.7074468085106383
F0.7092198581560283
F0.7109929078014184
F0.7127659574468085
F0.7145390070921985
F0.7163120567375887
F0.7180851063829786
F0.7198581560283688
F0.7216312056737588
F0.723404255319149
F0.725177304964539
F0.726950354609929
F0.7287234042553191
F0.7304964539007092
F0.7322695035460993
F0.7340425531914894
F0.7358156028368794
F0.7375886524822695
F0.7393617021276595
F0.7411347517730497
F0.7429078014184397
F0.7446808510638298
F0.7464539007092198
F0.74822695035461
F0.75
F0.75177304964539
F0.7535460992907801
F0.7553191489361701
F0.7570921985815603
F0.7588652482269503
F0.7606382978723405
F0.7624113475177304
F0.7641843971631205
F0.7659574468085106
F0.7677304964539007
F0.7695035460992908
F0.7712765957446808
F0.7730496453900708
F0.774822695035461
F0.776595744680851
F0.7783687943262412
F0.7801418439716311
F0.7819148936170213
F0.7836879432624113
F0.7854609929078015
F0.7872340425531915
F0.7890070921985815
F0.7907801418439716
F0.7925531914893617
F0.7943262411347518
F0.7960992907801419
F0.7978723404255318
F0.799645390070922
F0.801418439716312
F0.8031914893617021
F0.8049645390070922
F0.8067375886524822
F0.8085106382978723
F0.8102836879432623
F0.8120567375886525
F0.8138297872340425
F0.8156028368794326
F0.8173758865248226
F0.8191489361702128
F0.8209219858156028
F0.8226950354609929
F0.8244680851063829
F0.826241134751773
F0.8280141843971631
F0.8297872340425532
F0.8315602836879433
F0.8333333333333333
F0.8351063829787233
F0.8368794326241135
F0.8386524822695035
F0.8404255319148937
F0.8421985815602836
F0.8439716312056736
F0.8457446808510638
F0.8475177304964538
F0.849290780141844
F0.8510638297872339
F0.8528368794326241
F0.8546099290780141
F0.8563829787234043
F0.8581560283687943
F0.8599290780141843
F0.8617021276595744
F0.8634751773049645
F0.8652482269503546
F0.8670212765957447
F0.8687943262411346
F0.8705673758865248
F0.8723404255319148
F0.874113475177305
F0.875886524822695
F0.8776595744680851
F0.8794326241134751
F0.8812056737588652
F0.8829787234042553
F0.8847517730496454
F0.8865248226950354
F0.8882978723404255
F0.8900709219858156
F0.8918439716312057
F0.8936170212765957
F0.8953900709219857
F0.8971631205673758
F0.898936170212766
F0.900709219858156
F0.9024822695035462
F0.9042553191489361
F0.9060283687943261
F0.9078014184397163
F0.9095744680851063
F0.9113475177304965
F0.9131205673758864
F0.9148936170212766
F0.9166666666666666
F0.9184397163120567
F0.9202127659574468
F0.9219858156028368
F0.9237588652482269
F0.925531914893617
F0.9273049645390071
F0.9290780141843972
F0.9308510638297871
F0.9326241134751773
F0.9343971631205673
F0.9361702127659575
F0.9379432624113475
F0.9397163120567374
F0.9414893617021276
F0.9432624113475176
F0.9450354609929078
F0.9468085106382979
F0.9485815602836879
F0.9503546099290779
F0.952127659574468
F0.9539007092198581
F0.9556737588652482
F0.9574468085106382
F0.9592198581560283
F0.9609929078014184
F0.9627659574468085
F0.9645390070921985
F0.9663120567375886
F0.9680851063829786
F0.9698581560283688
F0.9716312056737588
F0.973404255319149
F0.9751773049645389
F0.976950354609929
F0.9787234042553191
F0.9804964539007092
F0.9822695035460993
F0.9840425531914893
F0.9858156028368794
F0.9875886524822695
F0.9893617021276595
F0.9911347517730497
F0.9929078014184396
F0.9946808510638298
F0.9964539007092198
F0.99822695035461
F1.0
tp41
a(F0.0
F2.506375565110433
F-3.617301438506757
F2.3680170066421824
F-3.6516057254001444
F6.219060476733242
F-4.836319486774329
F-0.16112795850897824
F1.277718079344428
F-1.2170748543953156
F2.5399903764288823
F-2.4508241289062327
F1.2227897928225133
F-1.246817988983851
F2.6428461130286736
F0.2120319560131434
F-1.2526476811140925
F-1.3916832468733291
F2.7124841299397935
F-2.513692824296224
F4.039516306808152
F-5.2077245880333205
F3.880526008534444
F-2.444207429156505
F4.154940480986403
F-5.326788119314301
F3.980749872073935
F-2.4933051400344546
F1.3256961147321271
F0.20047622495975895
F1.602551977867818
F-1.2281870494239129
F1.501176191811803
F-2.7240268703446477
F2.8637355045520874
F-2.6411256244709556
F2.9044914136768085
F-2.6415973451812333
F2.938878093696262
F-4.233364240615047
F4.317271429979912
F-4.108752273192059
F5.986009700448489
F-2.292963377767297
F1.4591843979590597
F-1.2376587670970998
F-0.00021277839646938014
F-1.483223638163712
F-1.7251772748592684
F6.5669471663922385
F-5.65523562515663
F4.379588033025782
F-0.818951887034232
F3.4091135797074856
F-0.9098232233106719
F-6.953251610759687
F6.1654164370470514
F-0.5639185456932935
F1.7778522641567789
F-4.817968383734534
F2.9512357076241367
F2.5674664732248615
F-1.2427122849264574
F3.659133021115906
F-4.584354869423496
F-0.6344110957721886
F0.2056339089189088
F2.0858583609852968
F0.5692314938823766
F4.102713641690161
F-2.787727237449728
F-6.0890755613221
F8.805587408320234
F-1.81323590741474
F-0.34195003915410394
F2.2966299608517877
F-3.20100110317913
F3.518822784988379
F-4.892593429899907
F3.150326548242215
F3.126773835085095
F-3.271537286928604
F5.6620442753149565
F-6.5505413643098835
F4.868518363137498
F1.6849078153433639
F-3.760379515230507
F1.6004807076667023
F-1.314275981195658
F4.170596644537479
F-0.7305358551481727
F-0.053626777957094224
F0.4275741188876952
F2.640160284706467
F-3.433070662954741
F3.869908572251629
F-5.224624914668272
F7.831598569298366
F-6.435849622276768
F0.5176859999723606
F7.83709956915446
F-7.021072411135656
F5.137698697705217
F-0.07957507920958812
F-0.055870148279615575
F0.5172409330038711
F2.910165067256164
F-3.5788461855933327
F1.6610294463631947
F-1.2826438748707227
F7.181648777654802
F-2.2746891172319317
F1.767940043203971
F-3.6203619634194166
F-3.398638502770318
F7.299478201735072
F-2.288164166713655
F6.714641106495169
F-2.1482768796928515
F-5.975077297996451
F6.728199693538177
F0.3844411277964011
F2.5101511088930804
F-1.0799580989257114
F-0.11840761513990558
F0.6776825452995874
F0.6863638751480843
F-2.016474660420236
F-0.23779954623675903
F3.316417286418121
F4.332896927040232
F-1.0519079690913753
F-2.9283957996714123
F5.3306868298847965
F-0.11181870502501122
F-0.15848666932805688
F-2.0764660095209497
F5.4176918604080955
F-5.7119755416200535
F9.10412045600081
F-3.67003070549819
F0.6063246733845474
F4.815574609964255
F-0.9602061963630606
F-3.1802713155683002
F2.651895475580498
F4.995803123350896
F-3.9710233185940296
F4.626663472293609
F-2.804922942950187
F7.733114305402434
F-7.679343453068531
F2.073954600629297
F3.3938339289056745
F-2.2043662862747313
F2.754656807026104
F-0.949798297939594
F2.747398270020802
F2.305672642261025
F-8.756068494755292
F-13.35654614191071
F2.785187598844016
F-0.3707039950582848
F-4.45660282196028
F8.723393324165615
F4.801439731029583
F7.2807837934495945
F10.661482883081923
F-6.0477419258101985
F-0.3955907352215013
F5.942939035312365
F-4.259106386658219
F1.0029294520041057
F-0.945725396281755
F-0.7847285452054883
F-2.8749119238267875
F-8.255507644769743
F-10.210568095565911
F7.341048297482384
F-1.8325758536244259
F-7.1134696605093675
F-1.882505603243598
F-0.19979434892240122
F-4.089050189828077
F-5.5851173991881184
F4.90784770431618
F14.81999794855379
F-5.3732893064871154
F17.159156601982254
F-6.6285788158130945
F-6.112318312827272
F-17.245559827832178
F-7.447886427222139
F-10.558845091714833
F-10.939849409233835
F3.5678355717526657
F19.151139822529537
F12.5125269609387
F-22.235633580835966
F1.3255003902486562
F-7.522872719987604
F1.1529050203130988
F-10.981509977510969
F10.071607087758666
F-1.1319013228285186
F-0.7736299084767035
F-12.955073802364618
F9.658546497242597
F3.0781611916972724
F-15.417166458471348
F1.8642004926456683
F8.344196927499398
F5.681932794431523
F-7.067613042386757
F-2.431834663228474
F-3.235190931672614
F4.653209259638709
F5.172620120054307
F-19.33585047660113
F-5.300285962803011
F18.20975942910898
F-14.646301361442053
F-3.92844348883132
F-1.4441266477334327
F29.002257283681544
F-12.776244720421673
F-17.802851762839186
F-3.6771622803908186
F-14.305820187101792
F-1.6789038259367484
F6.451436324077153
F25.559039803013203
F1.5689846446051217
F2.850581377892958
F-5.027585546549742
F2.681468613432922
F-19.49108068857451
F-9.413318778223019
F23.876458106537942
F10.505781909679923
F9.303620358946157
F2.2610635720142014
F0.7979627224304378
F8.825728852130332
F3.999555915535493
F5.280868288914202
F-0.7189413186066664
F11.58555552294245
F-7.552608308013182
F-6.336441398833026
F24.892522169203225
F8.830421872802663
F-24.744472254016788
F3.9854482430546145
F13.34849604210263
F1.8175276509558593
F-16.166682476690255
F8.633433723909086
F14.069905522874414
F-8.690641701865918
F-4.765378898416242
F12.604144405916843
F4.899715552843936
F-26.041238747747094
F-15.106747929649742
F-0.3501929353182147
F17.153965171064208
F-0.9632569877666994
F7.217524935952748
F16.649724273214012
F-16.091818342874596
F0.9796425966596413
F5.992131451533483
F-28.95708146372064
F0.8084768285324512
F-0.9529842292622184
F-12.232073080660316
F17.567728784738875
F12.01441595930689
F-5.753778839110549
F6.0946150952161595
F19.223114699610584
F32.0992886609219
F-28.372175490604764
F-32.48267551253916
F39.04109298630412
F7.9124423998027265
F-17.592028385853027
F-6.952879231765385
F1.7018196058273338
F18.44637087682849
F4.838899243846537
F-21.671417950019812
F21.64880901941835
F-11.044699762127456
F11.656473562134158
F12.23094440436498
F-8.671241902380402
F-15.456011811817612
F-19.239617796499132
F38.36274778204303
F-4.255267005329707
F-21.464733855421727
F-41.85562464787663
F-28.485379705359254
F35.3542997321406
F-17.186321847617247
F-38.13826344669691
F0.269200796248805
F-12.831789772164631
F-8.055832152329943
F-21.115420375086114
F-11.537456798051776
F-13.337500586817171
F-25.734275602865967
F-5.100989546241065
F24.429191027958797
F-12.937401071987885
F16.4856036890892
F-40.85522271978514
F-13.54339949079878
F102.85407582805799
F-9.146022086386536
F-20.135589752874598
F-44.151840422444515
F-54.65038386033213
F13.278609243707974
F52.44172854797977
F9.613327851523259
F16.242534259490885
F10.351934989839885
F-32.90411602160531
F34.91698318546428
F12.541224924316142
F-35.93728934694044
F-31.060337161829732
F14.373258713842178
F25.03041711761975
F44.746042979206784
F19.479543859989125
F-8.821651597771675
F24.046656955150564
F0.18840223066440095
F16.280952100337544
F-5.888026859546875
F-51.3114137767774
F-17.629911209404398
F-3.6318133938496024
F5.073343988704789
F-63.88066688071633
F7.256969000099177
F21.035913378119357
F19.57831020658723
F40.68088196255168
F-71.96795955121145
F63.766408656986556
F32.329838285867
F-71.35552136798974
F114.86049821887588
F-45.41760653666106
F-29.967260687494655
F16.52234889415215
F4.950971911073938
F-21.32896404778776
F29.844764294445504
F-23.41488320267388
F33.29572804858163
F16.09923404864586
F-23.25330489144562
F-0.42891059551951044
F-59.90962133002648
F16.748277346642055
F85.77329083680365
F-95.32094207095525
F-1.5516419619086819
F-10.286827683121905
F-1.0960507768855052
F-49.30512488339699
F90.58504760325377
F-48.58319809022414
F27.745308769980188
F-49.33614752934572
F26.315695872973976
F-9.917353853069356
F-43.02925999186294
F36.660019114986234
F-21.045891490510943
F-33.9635504379353
F35.39488971060024
F11.100167790170586
F-65.46027673056446
F-5.22970389845912
F5.940624288468395
F63.847512719990675
F33.36247434683353
F-94.37000577175708
F141.15388270796743
F-115.23852611744883
F70.54340410868095
F50.798940933686374
F-83.56740130412066
F-30.8098597213962
F108.62696578403268
F-106.45553014449854
F86.09052044711018
F-24.29438478710251
F28.936010823824073
F37.01542083907774
F-89.95954155902386
F14.707684863282587
F-16.900829847765884
F15.43382027016942
F0.5305733758548817
F62.99741920196827
F-63.88966257084663
F-8.301158785547203
F44.61506603357214
F-47.22552542469569
F-18.059725471478178
F102.99719086388527
F-46.83317021394048
F-57.93588165417411
F7.985897006097339
F28.58211339135021
F-20.633860535641855
F-31.217500021311416
F100.01232446209156
F11.897885265532587
F-70.69645164865592
F-22.440340394390947
F20.623212494472398
F-13.105200096835313
F72.59340880664222
F8.55565613876679
F-100.87760723199237
F7.995791675276707
F42.83540790159089
F14.607157595834314
F-69.57638239347412
F8.436994184655942
F64.42000148681339
F119.06080137197411
F-9.931005720416174
F-148.8355930038799
F110.8267171323721
F-17.445622626023372
F-73.26854166651336
F-0.2041639450314616
F10.089838489024544
F38.83906999333736
F-28.329753175899707
F-150.57085826051608
F-113.30829310051641
F69.67690629264153
F159.8259283890782
F-10.041523609893641
F-43.689917229771034
F-11.819741633327697
F-4.327046797436512
F149.52218599638994
F-74.28073097612685
F43.98099560480729
F-18.695723471426778
F-108.74889871583377
F-45.018335391006154
F215.62346834659886
F-32.832717438588936
F29.85242279936312
F-102.67733177888802
F-29.025058186354396
F65.78800604475988
F-126.2532795572197
F85.37495405661811
F-31.583481882777672
F99.779269356572
F-17.829807492835865
F-112.04333482267891
F-15.865947656750436
F169.195125284645
F-165.27158999533114
F221.86702404362404
F-258.92518964613697
F60.006775628525276
F71.982928389715
F83.88059503467632
F-166.15434744771977
F34.39848285340059
F201.99046529564296
F-187.94108543448834
F-82.32007562142093
F197.92262085401276
F-190.9424005321032
F243.68377166907499
F-325.45252043395817
F232.20376680337566
F-79.1343874951506
F-100.29415496507103
F178.4693078204302
F-35.503019075596725
F141.4116329210262
F-352.85180664168723
F231.46905315126202
F-163.82282692021104
F240.6255280437398
F-201.9838494938573
F22.44524914729989
F191.46386559058024
F-162.81704311473908
F-165.44671824768307
F377.49812784993816
F-382.5009618838703
F401.80367333719227
F-257.48197621960196
F251.66616548877545
F-428.63523231417895
F230.59074228188078
F79.1784006749113
F-5.868013657919193
F-99.32761643056118
F-217.68964972910686
F254.9118417921182
F222.60344321979474
F-223.77211441286948
F137.7102576473328
F-324.1563449036295
F100.27867399776554
F233.47121093887318
F-247.92475218811737
F72.1831603273878
F-138.69385955085852
F482.90177024328506
F-593.2112585949404
F354.5206604540685
F-14.41323369327456
F-264.3512488479262
F186.28346771801162
F83.6961505536388
F-177.52953849515066
F173.8716001878108
F-280.46388264176096
F190.46339457802148
F4.771510820299932
F95.081981109412
F-93.68756990708356
F98.34171097572961
F-108.17475596804861
F-186.61078421568087
F607.4105387667748
F-518.4178833573666
F2.9320617523525385
F206.70102489223714
F-217.0048237002724
F2.9437056210225956
F214.3903633236187
F-218.23068874016857
F216.22474618775763
F-336.59060364129994
F230.24972264798933
F226.4534383212778
F-343.8376355281455
F231.90261443010263
F-236.65213653275268
F116.3776985751572
F-123.78053249095841
F-4.157663977630226
tp42
abaaF56.400000000000006
ab.