ccopy_reg
_reconstructor
p0
(cdmp.srv._LearnDMPFromDemo
LearnDMPFromDemoResponse
p1
c__builtin__
object
p2
Ntp3
Rp4
(lp5
(lp6
g0
(cdmp.msg._DMPData
DMPData
p7
g2
Ntp8
Rp9
(lp10
F100.0
aF20.0
a(ta(F0.0
F0.3333333333333333
F0.6666666666666666
F1.0
tp11
a(F0.0
F-10.363659039258298
F-46.7064325607652
F202.99999999999991
tp12
abag0
(g7
g2
Ntp13
Rp14
(lp15
F100.0
aF20.0
a(ta(F0.0
F0.3333333333333333
F0.6666666666666666
F1.0
tp16
a(F0.0
F-17.646836706483857
F-51.38518009986404
F264.9999999999999
tp17
abaaF3.0
ab.